(lp0
((I2
I3
I5
tp1
(I3
I5
tp2
tp3
a((I1
I2
I4
I6
tp4
(I2
I4
I6
tp5
tp6
a((I1
I2
I3
I4
I6
tp7
(I2
I3
I4
I6
tp8
tp9
a((I1
I4
I5
tp10
(I1
I4
tp11
tp12
a((I3
I4
I5
I6
tp13
(I3
I4
I6
tp14
tp15
a((I2
I4
I5
tp16
(I2
I5
tp17
tp18
a((I1
I3
I4
I5
tp19
(I1
I3
I5
tp20
tp21
a((I1
I2
I3
I4
I5
I6
tp22
(I2
I3
I4
I5
I6
tp23
tp24
a((I1
I3
I6
tp25
(I1
I6
tp26
tp27
a((I1
I2
tp28
(I1
tp29
tp30
a((I2
I3
I4
I5
tp31
(I3
I4
I5
tp32
tp33
a((I1
I3
I5
I6
tp34
(I1
I5
I6
tp35
tp36
a((I1
I3
I4
I5
I6
tp37
(I1
I3
I4
I6
tp38
tp39
a((I1
I2
I3
I5
I6
tp40
(I2
I3
I5
I6
tp41
tp42
a((I3
I6
tp43
(I6
tp44
tp45
a((I1
I2
I3
I6
tp46
(I2
I3
I6
tp47
tp48
a((I3
I5
I6
tp49
(I5
I6
tp50
tp51
a((I2
I3
I4
tp52
(I2
I4
tp53
tp54
a((I4
I5
tp55
(I5
tp56
tp57
a((I1
I2
I3
I4
I5
tp58
(I1
I2
I3
I5
tp59
tp60
a((I1
I2
I3
tp61
(I1
I3
tp62
tp63
a((I1
I2
I5
I6
tp64
(I2
I5
I6
tp65
tp66
a((I2
I3
tp67
(I2
tp68
tp69
a((I4
I5
I6
tp70
(I4
I6
tp71
tp72
a((I1
I2
I5
tp73
(I1
I5
tp74
tp75
a((I1
I2
I6
tp76
(I2
I6
tp77
tp78
a((I1
I2
I4
I5
I6
tp79
(I2
I4
I5
I6
tp80
tp81
a((I1
I2
I3
I4
tp82
(I1
I3
I4
tp83
tp84
a((I1
I4
I5
I6
tp85
(I1
I4
I6
tp86
tp87
a((I3
I4
tp88
(I4
tp89
tp90
a((I1
I2
I4
I5
tp91
(I1
I2
I4
tp92
tp93
a.