(lp0
((I2
I3
I5
tp1
(I2
I3
tp2
tp3
a((I1
I3
tp4
(I3
tp5
tp6
a((I1
I2
I4
I6
tp7
(I2
I4
I6
tp8
tp9
a((I1
I2
I3
I4
I6
tp10
(I2
I3
I4
I6
tp11
tp12
a((I1
I4
I5
tp13
(I4
I5
tp14
tp15
a((I1
I6
tp16
(I6
tp17
tp18
a((I1
I5
I6
tp19
(I5
I6
tp20
tp21
a((I1
I3
I4
I5
tp22
(I3
I4
I5
tp23
tp24
a((I1
I2
I3
I4
I5
I6
tp25
(I2
I3
I4
I5
I6
tp26
tp27
a((I1
I3
I6
tp28
(I3
I6
tp29
tp30
a((I1
I2
tp31
(I2
tp32
tp33
a((I1
I3
I5
I6
tp34
(I3
I5
I6
tp35
tp36
a((I1
tp37
(ttp38
a((I1
I3
I4
I5
I6
tp39
(I3
I4
I5
I6
tp40
tp41
a((I1
I5
tp42
(I5
tp43
tp44
a((I1
I2
I3
I5
I6
tp45
(I2
I3
I5
I6
tp46
tp47
a((I1
I2
I3
I6
tp48
(I2
I3
I6
tp49
tp50
a((I1
I2
I3
I5
tp51
(I1
I2
I3
tp52
tp53
a((I1
I2
I3
I4
I5
tp54
(I2
I3
I4
I5
tp55
tp56
a((I1
I4
tp57
(I4
tp58
tp59
a((I1
I2
I5
I6
tp60
(I2
I5
I6
tp61
tp62
a((I1
I2
I4
tp63
(I2
I4
tp64
tp65
a((I1
I2
I5
tp66
(I2
I5
tp67
tp68
a((I1
I2
I6
tp69
(I2
I6
tp70
tp71
a((I1
I2
I4
I5
I6
tp72
(I2
I4
I5
I6
tp73
tp74
a((I1
I2
I3
I4
tp75
(I2
I3
I4
tp76
tp77
a((I1
I3
I5
tp78
(I3
I5
tp79
tp80
a((I1
I3
I4
I6
tp81
(I3
I4
I6
tp82
tp83
a((I1
I3
I4
tp84
(I3
I4
tp85
tp86
a((I1
I4
I6
tp87
(I4
I6
tp88
tp89
a((I1
I4
I5
I6
tp90
(I4
I5
I6
tp91
tp92
a((I1
I2
I4
I5
tp93
(I2
I4
I5
tp94
tp95
a.