(lp0
((I2
I3
I5
tp1
(I2
I3
tp2
tp3
a((I2
I5
I6
tp4
(I2
I6
tp5
tp6
a((I5
I6
tp7
(I6
tp8
tp9
a((I1
I4
I5
tp10
(I1
I4
tp11
tp12
a((I3
I4
I5
I6
tp13
(I3
I4
I6
tp14
tp15
a((I2
I5
tp16
(I2
tp17
tp18
a((I1
I5
I6
tp19
(I1
I6
tp20
tp21
a((I2
I4
I5
tp22
(I2
I4
tp23
tp24
a((I1
I3
I4
I5
tp25
(I1
I3
I4
tp26
tp27
a((I1
I2
I3
I4
I5
I6
tp28
(I1
I2
I3
I4
I6
tp29
tp30
a((I2
I3
I4
I5
tp31
(I2
I3
I4
tp32
tp33
a((I1
I3
I5
I6
tp34
(I1
I3
I6
tp35
tp36
a((I2
I3
I5
I6
tp37
(I2
I3
I6
tp38
tp39
a((I1
I3
I4
I5
I6
tp40
(I1
I3
I4
I6
tp41
tp42
a((I1
I5
tp43
(I1
tp44
tp45
a((I5
tp46
(ttp47
a((I1
I2
I3
I5
I6
tp48
(I1
I2
I3
I6
tp49
tp50
a((I1
I2
I3
I5
tp51
(I1
I2
I3
tp52
tp53
a((I2
I4
I5
I6
tp54
(I2
I4
I6
tp55
tp56
a((I3
I5
I6
tp57
(I3
I6
tp58
tp59
a((I4
I5
tp60
(I4
tp61
tp62
a((I1
I2
I3
I4
I5
tp63
(I1
I2
I3
I4
tp64
tp65
a((I1
I2
I5
I6
tp66
(I1
I2
I6
tp67
tp68
a((I4
I5
I6
tp69
(I4
I6
tp70
tp71
a((I1
I2
I5
tp72
(I1
I2
tp73
tp74
a((I3
I5
tp75
(I3
tp76
tp77
a((I1
I2
I4
I5
I6
tp78
(I1
I2
I4
I6
tp79
tp80
a((I1
I3
I5
tp81
(I1
I3
tp82
tp83
a((I3
I4
I5
tp84
(I3
I4
tp85
tp86
a((I1
I4
I5
I6
tp87
(I1
I4
I6
tp88
tp89
a((I1
I2
I4
I5
tp90
(I1
I2
I4
tp91
tp92
a.