(lp0
((I3
I4
I6
tp1
(I3
I4
tp2
tp3
a((I2
I3
I5
tp4
(I2
I3
tp5
tp6
a((I1
I3
tp7
(I3
tp8
tp9
a((I1
I2
I4
I6
tp10
(I1
I2
I4
tp11
tp12
a((I2
I5
I6
tp13
(I2
I5
tp14
tp15
a((I1
I2
I3
I4
I6
tp16
(I1
I2
I3
I4
tp17
tp18
a((I5
I6
tp19
(I5
tp20
tp21
a((I2
I3
I6
tp22
(I3
I6
tp23
tp24
a((I3
I4
I5
I6
tp25
(I4
I5
I6
tp26
tp27
a((I1
I5
I6
tp28
(I1
I5
tp29
tp30
a((I2
I4
I5
tp31
(I4
I5
tp32
tp33
a((I2
I3
I4
I5
tp34
(I3
I4
I5
tp35
tp36
a((I1
I3
I5
I6
tp37
(I1
I3
I6
tp38
tp39
a((I2
I3
I5
I6
tp40
(I3
I5
I6
tp41
tp42
a((I1
I3
I4
I5
I6
tp43
(I1
I3
I4
I5
tp44
tp45
a((I2
I3
I4
I5
I6
tp46
(I2
I4
I5
I6
tp47
tp48
a((I1
I2
I3
I5
I6
tp49
(I1
I2
I3
I5
tp50
tp51
a((I1
I2
I3
I6
tp52
(I1
I2
I6
tp53
tp54
a((I2
I3
I4
I6
tp55
(I2
I3
I4
tp56
tp57
a((I2
I4
I6
tp58
(I2
I6
tp59
tp60
a((I1
I4
tp61
(I1
tp62
tp63
a((I1
I2
I3
tp64
(I1
I2
tp65
tp66
a((I1
I2
I5
I6
tp67
(I1
I2
I5
tp68
tp69
a((I4
I6
tp70
(I6
tp71
tp72
a((I1
I2
I4
I5
I6
tp73
(I1
I2
I4
I5
tp74
tp75
a((I4
tp76
(ttp77
a((I1
I3
I5
tp78
(I3
I5
tp79
tp80
a((I1
I3
I4
I6
tp81
(I1
I3
I4
tp82
tp83
a((I1
I4
I6
tp84
(I1
I6
tp85
tp86
a((I1
I4
I5
I6
tp87
(I1
I4
I5
tp88
tp89
a((I2
I4
tp90
(I2
tp91
tp92
a.