(lp0
((I1
I2
I5
I6
I7
tp1
(I1
I2
I5
I6
tp2
tp3
a((I3
I7
tp4
(I3
tp5
tp6
a((I2
I6
I7
tp7
(I2
I6
tp8
tp9
a((I6
I7
tp10
(I6
tp11
tp12
a((I1
I2
I4
I7
tp13
(I1
I2
I4
tp14
tp15
a((I2
I3
I5
I7
tp16
(I2
I3
I5
tp17
tp18
a((I7
tp19
(ttp20
a((I2
I3
I4
I5
I6
I7
tp21
(I2
I3
I4
I5
I6
tp22
tp23
a((I1
I2
I3
I6
I7
tp24
(I1
I2
I3
I6
tp25
tp26
a((I1
I5
I6
I7
tp27
(I1
I5
I6
tp28
tp29
a((I1
I2
I4
I5
I6
I7
tp30
(I1
I2
I4
I5
I6
tp31
tp32
a((I1
I2
I4
I6
I7
tp33
(I1
I2
I4
I6
tp34
tp35
a((I2
I5
I7
tp36
(I2
I5
tp37
tp38
a((I1
I3
I7
tp39
(I1
I3
tp40
tp41
a((I2
I3
I6
I7
tp42
(I2
I3
I6
tp43
tp44
a((I2
I4
I5
I7
tp45
(I2
I4
I5
tp46
tp47
a((I1
I5
I7
tp48
(I1
I5
tp49
tp50
a((I1
I7
tp51
(I1
tp52
tp53
a((I4
I6
I7
tp54
(I4
I6
tp55
tp56
a((I3
I4
I7
tp57
(I3
I4
tp58
tp59
a((I1
I2
I3
I7
tp60
(I1
I2
I3
tp61
tp62
a((I3
I4
I5
I6
I7
tp63
(I3
I4
I5
I6
tp64
tp65
a((I2
I5
I6
I7
tp66
(I2
I5
I6
tp67
tp68
a((I1
I2
I6
I7
tp69
(I1
I2
I6
tp70
tp71
a((I2
I4
I6
I7
tp72
(I2
I4
I6
tp73
tp74
a((I1
I4
I6
I7
tp75
(I1
I4
I6
tp76
tp77
a((I1
I3
I4
I5
I6
I7
tp78
(I1
I3
I4
I5
I6
tp79
tp80
a((I1
I3
I4
I5
I7
tp81
(I1
I3
I4
I5
tp82
tp83
a((I2
I7
tp84
(I2
tp85
tp86
a((I1
I3
I6
I7
tp87
(I1
I3
I6
tp88
tp89
a((I2
I3
I4
I5
I7
tp90
(I2
I3
I4
I5
tp91
tp92
a((I5
I7
tp93
(I5
tp94
tp95
a((I1
I2
I3
I4
I5
I6
I7
tp96
(I1
I2
I3
I4
I5
I6
tp97
tp98
a((I1
I2
I3
I5
I7
tp99
(I1
I2
I3
I5
tp100
tp101
a((I1
I4
I7
tp102
(I1
I4
tp103
tp104
a((I1
I2
I3
I4
I5
I7
tp105
(I1
I2
I3
I4
I5
tp106
tp107
a((I1
I2
I3
I4
I6
I7
tp108
(I1
I2
I3
I4
I6
tp109
tp110
a((I2
I4
I5
I6
I7
tp111
(I2
I4
I5
I6
tp112
tp113
a((I1
I2
I4
I5
I7
tp114
(I1
I2
I4
I5
tp115
tp116
a((I1
I2
I5
I7
tp117
(I1
I2
I5
tp118
tp119
a((I1
I3
I4
I6
I7
tp120
(I1
I3
I4
I6
tp121
tp122
a((I1
I2
I3
I5
I6
I7
tp123
(I1
I2
I3
I5
I6
tp124
tp125
a((I1
I4
I5
I6
I7
tp126
(I1
I4
I5
I6
tp127
tp128
a((I1
I3
I5
I7
tp129
(I1
I3
I5
tp130
tp131
a((I1
I2
I3
I4
I7
tp132
(I1
I2
I3
I4
tp133
tp134
a((I1
I2
I7
tp135
(I1
I2
tp136
tp137
a((I4
I7
tp138
(I4
tp139
tp140
a((I3
I5
I6
I7
tp141
(I3
I5
I6
tp142
tp143
a((I2
I3
I7
tp144
(I2
I3
tp145
tp146
a((I1
I3
I5
I6
I7
tp147
(I1
I3
I5
I6
tp148
tp149
a((I2
I3
I4
I6
I7
tp150
(I2
I3
I4
I6
tp151
tp152
a((I5
I6
I7
tp153
(I5
I6
tp154
tp155
a((I1
I3
I4
I7
tp156
(I1
I3
I4
tp157
tp158
a((I3
I6
I7
tp159
(I3
I6
tp160
tp161
a((I2
I4
I7
tp162
(I2
I4
tp163
tp164
a((I2
I3
I4
I7
tp165
(I2
I3
I4
tp166
tp167
a((I3
I4
I5
I7
tp168
(I3
I4
I5
tp169
tp170
a((I1
I4
I5
I7
tp171
(I1
I4
I5
tp172
tp173
a((I1
I6
I7
tp174
(I1
I6
tp175
tp176
a((I2
I3
I5
I6
I7
tp177
(I2
I3
I5
I6
tp178
tp179
a((I4
I5
I6
I7
tp180
(I4
I5
I6
tp181
tp182
a((I4
I5
I7
tp183
(I4
I5
tp184
tp185
a((I3
I5
I7
tp186
(I3
I5
tp187
tp188
a((I3
I4
I6
I7
tp189
(I3
I4
I6
tp190
tp191
a.