(lp0
((I1
I2
I4
I7
tp1
(I1
I2
I7
tp2
tp3
a((I1
I3
I4
I5
I6
tp4
(I1
I3
I4
I5
tp5
tp6
a((I2
I3
I5
I7
tp7
(I2
I5
I7
tp8
tp9
a((I1
I2
I3
I6
I7
tp10
(I1
I2
I3
I7
tp11
tp12
a((I1
I2
I4
tp13
(I1
I2
tp14
tp15
a((I1
I2
I4
I5
I6
I7
tp16
(I1
I2
I4
I5
I7
tp17
tp18
a((I1
I2
I4
I6
I7
tp19
(I1
I2
I6
I7
tp20
tp21
a((I2
I3
I6
I7
tp22
(I2
I6
I7
tp23
tp24
a((I3
I4
I5
I6
tp25
(I3
I4
I5
tp26
tp27
a((I1
I4
I5
I6
tp28
(I1
I4
I5
tp29
tp30
a((I4
I6
I7
tp31
(I6
I7
tp32
tp33
a((I1
I2
I3
I4
I6
tp34
(I1
I2
I3
I4
tp35
tp36
a((I2
I3
I6
tp37
(I2
I6
tp38
tp39
a((I3
I4
I5
I6
I7
tp40
(I3
I4
I5
I7
tp41
tp42
a((I1
I3
I5
I6
tp43
(I1
I3
I5
tp44
tp45
a((I1
I2
I3
I5
I6
tp46
(I1
I2
I5
I6
tp47
tp48
a((I1
I2
I3
I4
I5
I6
tp49
(I1
I2
I3
I4
I5
tp50
tp51
a((I2
I4
I6
I7
tp52
(I2
I4
I7
tp53
tp54
a((I1
I4
I6
I7
tp55
(I1
I4
I7
tp56
tp57
a((I2
I4
I6
tp58
(I2
I4
tp59
tp60
a((I1
I3
I4
I5
I6
I7
tp61
(I1
I3
I4
I5
I7
tp62
tp63
a((I4
I5
I6
tp64
(I4
I5
tp65
tp66
a((I1
I3
I6
I7
tp67
(I1
I3
I7
tp68
tp69
a((I4
I6
tp70
(I4
tp71
tp72
a((I1
I3
I4
I6
tp73
(I1
I3
I4
tp74
tp75
a((I3
I5
I6
tp76
(I3
I5
tp77
tp78
a((I1
I2
I3
I5
I7
tp79
(I1
I3
I5
I7
tp80
tp81
a((I1
I2
I3
I4
I6
I7
tp82
(I1
I2
I3
I4
I7
tp83
tp84
a((I2
I3
I4
I5
tp85
(I2
I3
I5
tp86
tp87
a((I2
I4
I5
I6
I7
tp88
(I2
I4
I5
I7
tp89
tp90
a((I2
I3
I4
I6
tp91
(I2
I3
I4
tp92
tp93
a((I1
I2
I5
I7
tp94
(I1
I5
I7
tp95
tp96
a((I1
I2
I3
I6
tp97
(I1
I2
I3
tp98
tp99
a((I1
I2
I3
I5
tp100
(I1
I2
I5
tp101
tp102
a((I1
I3
I4
I6
I7
tp103
(I1
I3
I4
I7
tp104
tp105
a((I1
I2
I3
I5
I6
I7
tp106
(I1
I2
I5
I6
I7
tp107
tp108
a((I1
I4
I5
I6
I7
tp109
(I1
I4
I5
I7
tp110
tp111
a((I1
I4
tp112
(I1
tp113
tp114
a((I2
I3
tp115
(I2
tp116
tp117
a((I1
I2
I4
I5
I6
tp118
(I1
I2
I4
I5
tp119
tp120
a((I1
I3
I6
tp121
(I1
I3
tp122
tp123
a((I1
I5
I6
tp124
(I1
I5
tp125
tp126
a((I3
I4
tp127
(I3
tp128
tp129
a((I3
I4
I6
tp130
(I3
I6
tp131
tp132
a((I4
I7
tp133
(I7
tp134
tp135
a((I1
I2
I4
I6
tp136
(I1
I2
I6
tp137
tp138
a((I3
I5
I6
I7
tp139
(I3
I5
I7
tp140
tp141
a((I5
I6
tp142
(I5
tp143
tp144
a((I2
I3
I7
tp145
(I2
I7
tp146
tp147
a((I1
I3
I5
I6
I7
tp148
(I1
I5
I6
I7
tp149
tp150
a((I2
I3
I4
I6
I7
tp151
(I2
I3
I4
I7
tp152
tp153
a((I5
I6
I7
tp154
(I5
I7
tp155
tp156
a((I2
I4
I5
tp157
(I2
I5
tp158
tp159
a((I3
I6
I7
tp160
(I3
I7
tp161
tp162
a((I2
I4
I5
I6
tp163
(I2
I5
I6
tp164
tp165
a((I1
I6
I7
tp166
(I1
I7
tp167
tp168
a((I2
I3
I5
I6
I7
tp169
(I2
I5
I6
I7
tp170
tp171
a((I4
I5
I6
I7
tp172
(I4
I5
I7
tp173
tp174
a((I6
tp175
(ttp176
a((I1
I4
I6
tp177
(I1
I6
tp178
tp179
a((I3
I4
I6
I7
tp180
(I3
I4
I7
tp181
tp182
a.