(lp0
((I1
I2
I5
I6
I7
tp1
(I1
I5
I6
I7
tp2
tp3
a((I2
I6
I7
I8
tp4
(I2
I6
I8
tp5
tp6
a((I2
I3
I5
I8
tp7
(I3
I5
I8
tp8
tp9
a((I6
I7
tp10
(I6
tp11
tp12
a((I1
I2
I4
I5
I8
tp13
(I1
I4
I5
I8
tp14
tp15
a((I1
I2
I6
I8
tp16
(I1
I6
I8
tp17
tp18
a((I4
I6
I7
I8
tp19
(I4
I6
I8
tp20
tp21
a((I1
I2
I4
I7
tp22
(I1
I4
I7
tp23
tp24
a((I1
I2
I4
I6
I7
I8
tp25
(I1
I4
I6
I7
I8
tp26
tp27
a((I1
I2
I5
I6
I7
I8
tp28
(I1
I5
I6
I7
I8
tp29
tp30
a((I1
I2
I5
I7
I8
tp31
(I1
I5
I7
I8
tp32
tp33
a((I1
I2
I3
I4
I8
tp34
(I1
I2
I3
I8
tp35
tp36
a((I2
I3
I4
I5
I6
I7
tp37
(I2
I3
I5
I6
I7
tp38
tp39
a((I2
I3
I4
I7
I8
tp40
(I2
I3
I4
I7
tp41
tp42
a((I2
I5
I7
I8
tp43
(I2
I5
I8
tp44
tp45
a((I1
I3
I6
I8
tp46
(I1
I3
I6
tp47
tp48
a((I1
I2
I3
I6
I7
tp49
(I1
I2
I3
I7
tp50
tp51
a((I1
I2
I4
tp52
(I1
I2
tp53
tp54
a((I2
I4
I5
I7
I8
tp55
(I4
I5
I7
I8
tp56
tp57
a((I1
I2
I4
I5
I6
I7
tp58
(I1
I4
I5
I6
I7
tp59
tp60
a((I1
I2
I4
I6
I7
tp61
(I1
I4
I6
I7
tp62
tp63
a((I2
I5
I7
tp64
(I2
I5
tp65
tp66
a((I2
I3
I8
tp67
(I2
I8
tp68
tp69
a((I1
I3
I7
tp70
(I1
I3
tp71
tp72
a((I2
I4
I5
I7
tp73
(I4
I5
I7
tp74
tp75
a((I2
I4
I8
tp76
(I4
I8
tp77
tp78
a((I1
I2
I4
I5
I6
tp79
(I1
I4
I5
I6
tp80
tp81
a((I1
I2
I6
I7
I8
tp82
(I1
I6
I7
I8
tp83
tp84
a((I1
I2
I4
I5
I6
I8
tp85
(I1
I4
I5
I6
I8
tp86
tp87
a((I2
I3
I4
I8
tp88
(I2
I3
I4
tp89
tp90
a((I1
I3
I5
I6
I7
I8
tp91
(I1
I3
I5
I6
I8
tp92
tp93
a((I2
I5
I6
I7
I8
tp94
(I2
I5
I6
I8
tp95
tp96
a((I2
I4
I7
I8
tp97
(I2
I7
I8
tp98
tp99
a((I3
I4
I5
I6
I7
tp100
(I3
I5
I6
I7
tp101
tp102
a((I1
I2
I3
I6
I8
tp103
(I1
I2
I3
I6
tp104
tp105
a((I2
I3
I6
I7
I8
tp106
(I2
I3
I6
I7
tp107
tp108
a((I1
I3
I5
I6
tp109
(I1
I3
I5
tp110
tp111
a((I1
I3
I4
I5
I6
I7
I8
tp112
(I1
I3
I4
I5
I6
I8
tp113
tp114
a((I1
I2
I3
I4
I5
I6
tp115
(I1
I2
I3
I5
I6
tp116
tp117
a((I2
I3
I4
I6
I8
tp118
(I2
I3
I4
I6
tp119
tp120
a((I1
I2
I4
I8
tp121
(I1
I2
I8
tp122
tp123
a((I1
I2
I6
I7
tp124
(I1
I6
I7
tp125
tp126
a((I2
I4
I6
I7
tp127
(I2
I6
I7
tp128
tp129
a((I1
I2
I3
I4
I5
tp130
(I1
I3
I4
I5
tp131
tp132
a((I2
I4
I6
tp133
(I2
I6
tp134
tp135
a((I1
I3
I4
I5
I6
I7
tp136
(I1
I3
I5
I6
I7
tp137
tp138
a((I1
I3
I5
I7
I8
tp139
(I1
I3
I5
I8
tp140
tp141
a((I1
I2
I3
I4
I6
I8
tp142
(I1
I2
I3
I4
I6
tp143
tp144
a((I2
I3
I5
I6
tp145
(I3
I5
I6
tp146
tp147
a((I2
I7
tp148
(I7
tp149
tp150
a((I4
I6
I7
tp151
(I4
I6
tp152
tp153
a((I3
I6
I7
I8
tp154
(I3
I6
I8
tp155
tp156
a((I1
I3
I6
I7
I8
tp157
(I1
I3
I6
I7
tp158
tp159
a((I1
I3
I4
I8
tp160
(I1
I3
I4
tp161
tp162
a((I5
I7
tp163
(I5
tp164
tp165
a((I2
I3
I5
I6
I7
I8
tp166
(I3
I5
I6
I7
I8
tp167
tp168
a((I1
I2
I3
I4
I5
I6
I7
tp169
(I1
I2
I3
I5
I6
I7
tp170
tp171
a((I1
I2
I3
I5
I7
tp172
(I1
I2
I3
I5
tp173
tp174
a((I1
I3
I4
I6
I8
tp175
(I1
I3
I4
I6
tp176
tp177
a((I1
I2
I3
I4
I5
I7
tp178
(I1
I3
I4
I5
I7
tp179
tp180
a((I2
I3
I6
I8
tp181
(I2
I3
I6
tp182
tp183
a((I1
I3
I4
I6
I7
I8
tp184
(I1
I3
I4
I7
I8
tp185
tp186
a((I3
I4
I5
I7
I8
tp187
(I3
I4
I5
I7
tp188
tp189
a((I1
I2
I4
I5
I6
I7
I8
tp190
(I1
I4
I5
I6
I7
I8
tp191
tp192
a((I2
I4
I5
I6
I7
tp193
(I2
I5
I6
I7
tp194
tp195
a((I1
I2
I4
I5
I7
tp196
(I1
I4
I5
I7
tp197
tp198
a((I2
I3
I4
I5
I6
I7
I8
tp199
(I3
I4
I5
I6
I7
I8
tp200
tp201
a((I3
I4
I5
I8
tp202
(I3
I4
I5
tp203
tp204
a((I1
I2
I5
I7
tp205
(I1
I5
I7
tp206
tp207
a((I3
tp208
(ttp209
a((I1
I2
I7
I8
tp210
(I1
I7
I8
tp211
tp212
a((I1
I2
I3
I4
I5
I8
tp213
(I1
I3
I4
I5
I8
tp214
tp215
a((I2
I3
I4
I5
I6
tp216
(I3
I4
I5
I6
tp217
tp218
a((I1
I2
I4
I6
I8
tp219
(I1
I4
I6
I8
tp220
tp221
a((I1
I2
I3
I4
I7
I8
tp222
(I1
I2
I3
I4
I7
tp223
tp224
a((I1
I3
I4
I6
I7
tp225
(I1
I3
I4
I7
tp226
tp227
a((I2
I3
I5
I6
I8
tp228
(I3
I5
I6
I8
tp229
tp230
a((I2
I3
I7
I8
tp231
(I3
I7
I8
tp232
tp233
a((I1
I3
I7
I8
tp234
(I1
I3
I8
tp235
tp236
a((I1
I2
I4
I7
I8
tp237
(I1
I4
I7
I8
tp238
tp239
a((I1
I3
I5
I7
tp240
(I3
I5
I7
tp241
tp242
a((I1
I4
tp243
(I1
tp244
tp245
a((I4
I7
I8
tp246
(I7
I8
tp247
tp248
a((I2
I3
tp249
(I2
tp250
tp251
a((I2
I5
I6
tp252
(I5
I6
tp253
tp254
a((I1
I2
I5
tp255
(I1
I5
tp256
tp257
a((I4
I5
I6
I7
I8
tp258
(I4
I5
I6
I8
tp259
tp260
a((I1
I2
I3
I5
I7
I8
tp261
(I1
I2
I3
I5
I8
tp262
tp263
a((I1
I2
I7
tp264
(I1
I7
tp265
tp266
a((I1
I2
I3
I4
I6
I7
I8
tp267
(I1
I2
I3
I4
I6
I7
tp268
tp269
a((I2
I4
I5
I6
I7
I8
tp270
(I2
I4
I5
I6
I8
tp271
tp272
a((I1
I2
I4
I5
tp273
(I1
I4
I5
tp274
tp275
a((I2
I3
I5
tp276
(I3
I5
tp277
tp278
a((I4
I7
tp279
(I4
tp280
tp281
a((I1
I2
I4
I6
tp282
(I1
I2
I6
tp283
tp284
a((I2
I3
I7
tp285
(I3
I7
tp286
tp287
a((I5
I7
I8
tp288
(I5
I8
tp289
tp290
a((I5
I6
I7
I8
tp291
(I5
I6
I8
tp292
tp293
a((I2
I3
I4
I5
I7
I8
tp294
(I2
I3
I4
I5
I7
tp295
tp296
a((I2
I3
I4
I6
I7
I8
tp297
(I2
I3
I4
I6
I7
tp298
tp299
a((I3
I4
I7
I8
tp300
(I3
I4
I7
tp301
tp302
a((I2
I4
I5
tp303
(I4
I5
tp304
tp305
a((I3
I6
I7
tp306
(I3
I6
tp307
tp308
a((I2
I3
I5
I7
I8
tp309
(I3
I5
I7
I8
tp310
tp311
a((I1
I2
I3
I5
I6
I7
I8
tp312
(I1
I2
I3
I5
I6
I8
tp313
tp314
a((I2
I4
I5
I6
tp315
(I4
I5
I6
tp316
tp317
a((I1
I2
I5
I6
I8
tp318
(I1
I5
I6
I8
tp319
tp320
a((I2
I4
I7
tp321
(I2
I4
tp322
tp323
a((I2
I3
I4
I5
I8
tp324
(I2
I3
I4
I5
tp325
tp326
a((I3
I4
I8
tp327
(I3
I4
tp328
tp329
a((I1
I2
I5
I8
tp330
(I1
I5
I8
tp331
tp332
a((I2
I4
I5
I8
tp333
(I4
I5
I8
tp334
tp335
a((I6
I7
I8
tp336
(I6
I8
tp337
tp338
a((I1
I2
I5
I6
tp339
(I1
I5
I6
tp340
tp341
a((I1
I2
I3
I4
I5
I7
I8
tp342
(I1
I2
I4
I5
I7
I8
tp343
tp344
a((I1
I3
I4
I5
I7
I8
tp345
(I1
I4
I5
I7
I8
tp346
tp347
a((I4
I5
I6
I7
tp348
(I5
I6
I7
tp349
tp350
a((I2
I4
I6
I7
I8
tp351
(I2
I4
I6
I8
tp352
tp353
a((I1
I2
I3
I6
I7
I8
tp354
(I1
I2
I3
I7
I8
tp355
tp356
a((I1
I2
I3
I4
tp357
(I1
I2
I3
tp358
tp359
a((I1
I4
I8
tp360
(I1
I8
tp361
tp362
a((I3
I8
tp363
(I8
tp364
tp365
a((I2
I3
I4
I5
I6
I8
tp366
(I3
I4
I5
I6
I8
tp367
tp368
a((I1
I4
I6
tp369
(I1
I6
tp370
tp371
a((I3
I4
I6
I7
tp372
(I3
I4
I6
tp373
tp374
a((I3
I4
I6
I7
I8
tp375
(I3
I4
I6
I8
tp376
tp377
a.