(lp0
((I1
I2
tp1
(I2
tp2
tp3
a((I1
tp4
(ttp5
a((I1
I4
tp6
(I4
tp7
tp8
a((I1
I2
I4
tp9
(I2
I4
tp10
tp11
a((I1
I3
I4
tp12
(I1
I3
tp13
tp14
a((I1
I2
I3
tp15
(I2
I3
tp16
tp17
a((I3
I4
tp18
(I3
tp19
tp20
a.