(lp0
((I1
I3
tp1
(I3
tp2
tp3
a((I1
I4
tp4
(I1
tp5
tp6
a((I4
tp7
(ttp8
a((I1
I2
I4
tp9
(I1
I2
tp10
tp11
a((I1
I3
I4
tp12
(I3
I4
tp13
tp14
a((I1
I2
I3
tp15
(I2
I3
tp16
tp17
a((I2
I4
tp18
(I2
tp19
tp20
a.