(lp0
((I0
I2
I5
tp1
(I2
I5
tp2
tp3
a((I0
I4
tp4
(I4
tp5
tp6
a((I0
I2
I5
I6
tp7
(I2
I5
I6
tp8
tp9
a((I0
I1
I3
I4
I6
tp10
(I1
I3
I4
I6
tp11
tp12
a((I0
I1
I2
I4
I5
tp13
(I1
I2
I4
I5
tp14
tp15
a((I0
I2
I3
I4
tp16
(I2
I3
I4
tp17
tp18
a((I0
I1
tp19
(I1
tp20
tp21
a((I0
I1
I2
I3
I4
I6
tp22
(I1
I2
I3
I4
I6
tp23
tp24
a((I0
I1
I3
I5
I6
tp25
(I1
I3
I5
I6
tp26
tp27
a((I0
I3
I4
I5
tp28
(I3
I4
I5
tp29
tp30
a((I0
I1
I3
I6
tp31
(I1
I3
I6
tp32
tp33
a((I0
I1
I4
I5
tp34
(I1
I4
I5
tp35
tp36
a((I0
I1
I3
I5
tp37
(I1
I3
I5
tp38
tp39
a((I0
I4
I6
tp40
(I4
I6
tp41
tp42
a((I0
I1
I3
I4
I5
tp43
(I1
I3
I4
I5
tp44
tp45
a((I0
I2
I4
I6
tp46
(I2
I4
I6
tp47
tp48
a((I0
I2
I4
I5
tp49
(I2
I4
I5
tp50
tp51
a((I0
I1
I2
I3
I4
tp52
(I1
I2
I3
I4
tp53
tp54
a((I0
I1
I4
tp55
(I1
I4
tp56
tp57
a((I0
I1
I6
tp58
(I1
I6
tp59
tp60
a((I0
I3
I4
I5
I6
tp61
(I3
I4
I5
I6
tp62
tp63
a((I0
I2
I3
I4
I6
tp64
(I2
I3
I4
I6
tp65
tp66
a((I0
I1
I2
I6
tp67
(I1
I2
I6
tp68
tp69
a((I0
I1
I2
I3
tp70
(I1
I2
I3
tp71
tp72
a((I0
I4
I5
I6
tp73
(I4
I5
I6
tp74
tp75
a((I0
I1
I4
I6
tp76
(I1
I4
I6
tp77
tp78
a((I0
I5
tp79
(I5
tp80
tp81
a((I2
tp82
(ttp83
a((I0
I3
I5
tp84
(I3
I5
tp85
tp86
a((I0
I2
I3
I5
tp87
(I0
I2
I3
tp88
tp89
a((I0
I2
tp90
(I0
tp91
tp92
a((I0
I2
I3
I6
tp93
(I2
I3
I6
tp94
tp95
a((I0
I5
I6
tp96
(I5
I6
tp97
tp98
a((I0
I1
I5
I6
tp99
(I1
I5
I6
tp100
tp101
a((I0
I3
I4
I6
tp102
(I3
I4
I6
tp103
tp104
a((I0
I1
I3
I4
tp105
(I1
I3
I4
tp106
tp107
a((I0
I1
I2
I3
I6
tp108
(I1
I2
I3
I6
tp109
tp110
a((I0
I1
I2
tp111
(I1
I2
tp112
tp113
a((I1
I2
I3
I5
tp114
(I1
I2
I5
tp115
tp116
a((I0
I2
I4
tp117
(I2
I4
tp118
tp119
a((I0
I1
I2
I5
I6
tp120
(I1
I2
I5
I6
tp121
tp122
a((I0
I1
I4
I5
I6
tp123
(I1
I4
I5
I6
tp124
tp125
a((I0
I2
I6
tp126
(I2
I6
tp127
tp128
a((I0
I1
I2
I4
tp129
(I1
I2
I4
tp130
tp131
a((I0
I3
I5
I6
tp132
(I3
I5
I6
tp133
tp134
a((I0
I2
I4
I5
I6
tp135
(I2
I4
I5
I6
tp136
tp137
a((I0
I6
tp138
(I6
tp139
tp140
a((I0
I1
I2
I4
I6
tp141
(I1
I2
I4
I6
tp142
tp143
a((I2
I3
I5
tp144
(I2
I3
tp145
tp146
a((I0
I4
I5
tp147
(I4
I5
tp148
tp149
a((I0
I2
I3
I4
I5
I6
tp150
(I2
I3
I4
I5
I6
tp151
tp152
a((I0
I2
I3
I4
I5
tp153
(I2
I3
I4
I5
tp154
tp155
a((I0
I1
I3
tp156
(I1
I3
tp157
tp158
a((I0
I3
tp159
(I3
tp160
tp161
a((I0
I1
I5
tp162
(I1
I5
tp163
tp164
a((I0
I1
I2
I3
I4
I5
tp165
(I1
I2
I3
I4
I5
tp166
tp167
a((I0
I3
I6
tp168
(I3
I6
tp169
tp170
a((I0
I1
I3
I4
I5
I6
tp171
(I1
I3
I4
I5
I6
tp172
tp173
a((I0
I3
I4
tp174
(I3
I4
tp175
tp176
a((I0
I1
I2
I4
I5
I6
tp177
(I1
I2
I4
I5
I6
tp178
tp179
a((I0
I2
I3
I5
I6
tp180
(I2
I3
I5
I6
tp181
tp182
a((I0
I1
I2
I3
I5
I6
tp183
(I0
I1
I2
I3
I5
tp184
tp185
a.