(lp0
((I0
I2
I3
I5
I6
I7
tp1
(I2
I3
I5
I6
I7
tp2
tp3
a((I0
I1
I3
I5
I6
I7
tp4
(I1
I3
I5
I6
I7
tp5
tp6
a((I0
I1
I2
I4
I5
I7
tp7
(I0
I1
I2
I4
I5
tp8
tp9
a((I1
I2
I5
I6
I7
tp10
(I1
I2
I5
I6
tp11
tp12
a((I0
I1
I2
I3
I4
I7
tp13
(I1
I2
I3
I4
I7
tp14
tp15
a((I0
I1
I6
I7
tp16
(I1
I6
I7
tp17
tp18
a((I0
I3
I4
I5
I6
I7
tp19
(I3
I4
I5
I6
I7
tp20
tp21
a((I0
I7
tp22
(I7
tp23
tp24
a((I0
I5
I7
tp25
(I5
I7
tp26
tp27
a((I0
I1
I3
I6
I7
tp28
(I1
I3
I6
I7
tp29
tp30
a((I0
I1
I2
I3
I5
I6
I7
tp31
(I1
I2
I3
I5
I6
I7
tp32
tp33
a((I0
I2
I3
tp34
(I2
I3
tp35
tp36
a((I1
I2
I4
I7
tp37
(I1
I2
I4
tp38
tp39
a((I1
I3
I4
I5
I6
tp40
(I1
I4
I5
I6
tp41
tp42
a((I0
I1
I2
I3
I5
I6
tp43
(I1
I2
I3
I5
I6
tp44
tp45
a((I0
I2
I5
tp46
(I2
I5
tp47
tp48
a((I0
I4
tp49
(I4
tp50
tp51
a((I0
I2
I5
I6
tp52
(I2
I5
I6
tp53
tp54
a((I0
I1
I3
I4
I6
tp55
(I1
I3
I4
I6
tp56
tp57
a((I0
I2
I7
tp58
(I2
I7
tp59
tp60
a((I0
I1
I2
I3
I5
tp61
(I1
I2
I3
I5
tp62
tp63
a((I0
I2
I3
I4
tp64
(I2
I3
I4
tp65
tp66
a((I0
I1
I2
I3
I4
I5
I7
tp67
(I1
I2
I3
I4
I5
I7
tp68
tp69
a((I1
I2
I4
I5
I6
I7
tp70
(I1
I2
I4
I5
I6
tp71
tp72
a((I1
I2
I4
I6
I7
tp73
(I1
I2
I4
I6
tp74
tp75
a((I0
I2
I4
I5
I6
I7
tp76
(I2
I4
I5
I6
I7
tp77
tp78
a((I0
I3
I4
I5
I7
tp79
(I3
I4
I5
I7
tp80
tp81
a((I0
I1
tp82
(I1
tp83
tp84
a((I0
tp85
(ttp86
a((I0
I1
I2
I3
I4
I6
tp87
(I1
I2
I3
I4
I6
tp88
tp89
a((I0
I4
I6
I7
tp90
(I4
I6
I7
tp91
tp92
a((I0
I1
I5
I7
tp93
(I1
I5
I7
tp94
tp95
a((I0
I1
I3
I5
I6
tp96
(I1
I3
I5
I6
tp97
tp98
a((I0
I3
I4
I5
tp99
(I3
I4
I5
tp100
tp101
a((I0
I1
I3
I6
tp102
(I1
I3
I6
tp103
tp104
a((I0
I1
I4
I5
tp105
(I1
I4
I5
tp106
tp107
a((I0
I4
I6
tp108
(I4
I6
tp109
tp110
a((I0
I3
I5
I6
tp111
(I3
I5
I6
tp112
tp113
a((I0
I1
I3
I4
I5
tp114
(I1
I3
I4
I5
tp115
tp116
a((I0
I2
I4
I6
tp117
(I2
I4
I6
tp118
tp119
a((I0
I2
I4
I5
tp120
(I2
I4
I5
tp121
tp122
a((I0
I1
I2
I3
I4
tp123
(I1
I2
I3
I4
tp124
tp125
a((I0
I1
I4
tp126
(I1
I4
tp127
tp128
a((I0
I1
I4
I6
I7
tp129
(I1
I4
I6
I7
tp130
tp131
a((I0
I1
I5
I6
I7
tp132
(I1
I5
I6
I7
tp133
tp134
a((I0
I2
I5
I6
I7
tp135
(I2
I5
I6
I7
tp136
tp137
a((I0
I1
I6
tp138
(I1
I6
tp139
tp140
a((I0
I3
I4
I5
I6
tp141
(I3
I4
I5
I6
tp142
tp143
a((I0
I6
I7
tp144
(I6
I7
tp145
tp146
a((I0
I1
I3
I4
I5
I6
I7
tp147
(I1
I3
I4
I5
I6
I7
tp148
tp149
a((I0
I2
I3
I4
I6
I7
tp150
(I2
I3
I4
I6
I7
tp151
tp152
a((I0
I2
I3
I4
I6
tp153
(I2
I3
I4
I6
tp154
tp155
a((I1
I2
I4
I5
I7
tp156
(I1
I2
I4
I5
tp157
tp158
a((I0
I1
I3
I5
I7
tp159
(I1
I3
I5
I7
tp160
tp161
a((I0
I1
I2
I3
tp162
(I1
I2
I3
tp163
tp164
a((I0
I4
I5
I6
tp165
(I4
I5
I6
tp166
tp167
a((I0
I3
I5
I7
tp168
(I3
I5
I7
tp169
tp170
a((I0
I1
I4
I6
tp171
(I1
I4
I6
tp172
tp173
a((I0
I3
I5
I6
I7
tp174
(I3
I5
I6
I7
tp175
tp176
a((I1
I2
I6
I7
tp177
(I1
I2
I6
tp178
tp179
a((I0
I2
I3
I4
I5
I6
I7
tp180
(I2
I3
I4
I5
I6
I7
tp181
tp182
a((I0
I5
tp183
(I5
tp184
tp185
a((I0
I2
I4
I6
I7
tp186
(I2
I4
I6
I7
tp187
tp188
a((I0
I3
I7
tp189
(I3
I7
tp190
tp191
a((I0
I1
I2
I3
I7
tp192
(I1
I2
I3
I7
tp193
tp194
a((I0
I5
I6
I7
tp195
(I5
I6
I7
tp196
tp197
a((I0
I2
I5
I7
tp198
(I2
I5
I7
tp199
tp200
a((I0
I3
I5
tp201
(I3
I5
tp202
tp203
a((I0
I1
I2
I5
I7
tp204
(I0
I1
I2
I5
tp205
tp206
a((I0
I2
I3
I4
I7
tp207
(I2
I3
I4
I7
tp208
tp209
a((I0
I2
I3
I5
tp210
(I2
I3
I5
tp211
tp212
a((I0
I2
tp213
(I2
tp214
tp215
a((I0
I2
I3
I6
tp216
(I2
I3
I6
tp217
tp218
a((I0
I5
I6
tp219
(I5
I6
tp220
tp221
a((I0
I1
I2
I3
I4
I5
I6
tp222
(I0
I1
I2
I4
I5
I6
tp223
tp224
a((I0
I1
I5
I6
tp225
(I1
I5
I6
tp226
tp227
a((I0
I2
I3
I6
I7
tp228
(I2
I3
I6
I7
tp229
tp230
a((I0
I1
I4
I5
I6
I7
tp231
(I1
I4
I5
I6
I7
tp232
tp233
a((I0
I3
I4
I6
tp234
(I3
I4
I6
tp235
tp236
a((I0
I1
I3
I4
tp237
(I1
I3
I4
tp238
tp239
a((I0
I1
I2
I3
I6
tp240
(I1
I2
I3
I6
tp241
tp242
a((I1
I2
I5
I7
tp243
(I1
I2
I5
tp244
tp245
a((I0
I3
I6
I7
tp246
(I3
I6
I7
tp247
tp248
a((I0
I1
I4
I5
I7
tp249
(I1
I4
I5
I7
tp250
tp251
a((I0
I1
I2
I3
I5
I7
tp252
(I1
I2
I3
I5
I7
tp253
tp254
a((I0
I2
I4
tp255
(I2
I4
tp256
tp257
a((I0
I1
I2
I5
I6
I7
tp258
(I0
I1
I2
I5
I6
tp259
tp260
a((I0
I2
I6
I7
tp261
(I2
I6
I7
tp262
tp263
a((I0
I2
I6
tp264
(I2
I6
tp265
tp266
a((I0
I1
I2
I7
tp267
(I0
I1
I2
tp268
tp269
a((I1
I2
I7
tp270
(I1
I2
tp271
tp272
a((I0
I1
I4
I7
tp273
(I1
I4
I7
tp274
tp275
a((I0
I2
I4
I5
I6
tp276
(I2
I4
I5
I6
tp277
tp278
a((I0
I6
tp279
(I6
tp280
tp281
a((I0
I4
I7
tp282
(I4
I7
tp283
tp284
a((I0
I4
I5
tp285
(I4
I5
tp286
tp287
a((I0
I2
I3
I4
I5
I6
tp288
(I2
I3
I4
I5
I6
tp289
tp290
a((I0
I2
I3
I4
I5
tp291
(I2
I3
I4
I5
tp292
tp293
a((I0
I1
I3
tp294
(I1
I3
tp295
tp296
a((I0
I3
tp297
(I3
tp298
tp299
a((I0
I1
I5
tp300
(I1
I5
tp301
tp302
a((I0
I2
I3
I5
I7
tp303
(I2
I3
I5
I7
tp304
tp305
a((I0
I2
I3
I7
tp306
(I2
I3
I7
tp307
tp308
a((I0
I1
I7
tp309
(I1
I7
tp310
tp311
a((I0
I2
I4
I5
I7
tp312
(I2
I4
I5
I7
tp313
tp314
a((I0
I1
I2
I3
I6
I7
tp315
(I1
I2
I3
I6
I7
tp316
tp317
a((I0
I1
I2
I4
I7
tp318
(I0
I1
I2
I4
tp319
tp320
a((I0
I2
I3
I4
I5
I7
tp321
(I2
I3
I4
I5
I7
tp322
tp323
a((I0
I1
I3
I4
I5
I7
tp324
(I1
I3
I4
I5
I7
tp325
tp326
a((I0
I3
I4
I7
tp327
(I3
I4
I7
tp328
tp329
a((I0
I1
I3
I4
I6
I7
tp330
(I1
I3
I4
I6
I7
tp331
tp332
a((I0
I3
I4
I6
I7
tp333
(I3
I4
I6
I7
tp334
tp335
a((I0
I1
I3
I7
tp336
(I1
I3
I7
tp337
tp338
a((I0
I1
I2
I3
I4
I5
tp339
(I1
I2
I3
I4
I5
tp340
tp341
a((I0
I3
I6
tp342
(I3
I6
tp343
tp344
a((I0
I1
I2
I6
I7
tp345
(I0
I1
I2
I6
tp346
tp347
a((I0
I4
I5
I6
I7
tp348
(I4
I5
I6
I7
tp349
tp350
a((I0
I1
I3
I4
I5
I6
tp351
(I0
I1
I4
I5
I6
tp352
tp353
a((I0
I1
I3
I5
tp354
(I1
I3
I5
tp355
tp356
a((I0
I2
I4
I7
tp357
(I2
I4
I7
tp358
tp359
a((I0
I3
I4
tp360
(I3
I4
tp361
tp362
a((I0
I2
I3
I5
I6
tp363
(I2
I3
I5
I6
tp364
tp365
a((I0
I1
I2
I3
I4
I6
I7
tp366
(I1
I2
I3
I4
I6
I7
tp367
tp368
a((I0
I1
I3
I4
I7
tp369
(I1
I3
I4
I7
tp370
tp371
a((I0
I1
I2
I4
I6
I7
tp372
(I0
I1
I2
I4
I6
tp373
tp374
a((I0
I4
I5
I7
tp375
(I4
I5
I7
tp376
tp377
a.