(lp0
((I0
I2
I3
I5
I6
I7
tp1
(I0
I2
I3
I5
I7
tp2
tp3
a((I0
I1
I3
I5
I6
I7
tp4
(I1
I3
I5
I6
I7
tp5
tp6
a((I0
I1
I2
I4
I5
I7
tp7
(I0
I2
I4
I5
I7
tp8
tp9
a((I1
I2
I5
I6
I7
tp10
(I2
I5
I6
I7
tp11
tp12
a((I0
I3
I4
I5
I6
I7
tp13
(I0
I3
I4
I6
I7
tp14
tp15
a((I0
I1
I3
I6
I7
tp16
(I1
I3
I6
I7
tp17
tp18
a((I3
I7
tp19
(I7
tp20
tp21
a((I0
I1
I2
I3
I5
I6
I7
tp22
(I0
I1
I2
I3
I5
I7
tp23
tp24
a((I0
I2
I3
tp25
(I0
I2
tp26
tp27
a((I1
I3
I4
I5
I6
tp28
(I1
I3
I4
I6
tp29
tp30
a((I0
I1
I2
I3
I5
I6
tp31
(I1
I2
I3
I5
I6
tp32
tp33
a((I0
I2
I5
I6
tp34
(I0
I2
I5
tp35
tp36
a((I4
I5
tp37
(I5
tp38
tp39
a((I0
I1
I2
I3
I5
tp40
(I0
I1
I2
I5
tp41
tp42
a((I0
I1
I2
I4
I5
tp43
(I0
I1
I2
I4
tp44
tp45
a((I2
I3
I6
I7
tp46
(I2
I6
I7
tp47
tp48
a((I1
I5
I6
I7
tp49
(I1
I6
I7
tp50
tp51
a((I1
I2
I4
I5
I6
I7
tp52
(I1
I2
I4
I6
I7
tp53
tp54
a((I0
I2
I4
I5
I6
I7
tp55
(I0
I2
I4
I6
I7
tp56
tp57
a((I0
I3
I4
I5
I7
tp58
(I0
I3
I4
I7
tp59
tp60
a((I0
I1
tp61
(I0
tp62
tp63
a((I2
I4
I5
I7
tp64
(I2
I4
I7
tp65
tp66
a((I0
I1
I5
I7
tp67
(I1
I5
I7
tp68
tp69
a((I0
I1
I3
I5
I6
tp70
(I1
I3
I5
I6
tp71
tp72
a((I0
I3
I4
I5
tp73
(I0
I3
I5
tp74
tp75
a((I0
I1
I3
I6
tp76
(I1
I3
I6
tp77
tp78
a((I3
I4
I5
tp79
(I3
I5
tp80
tp81
a((I2
I3
I4
tp82
(I2
I4
tp83
tp84
a((I0
I1
I4
I5
tp85
(I1
I4
I5
tp86
tp87
a((I0
I3
I5
I6
tp88
(I0
I3
I6
tp89
tp90
a((I0
I1
I3
I4
I5
tp91
(I0
I1
I3
I5
tp92
tp93
a((I1
I2
I3
I7
tp94
(I1
I2
I7
tp95
tp96
a((I0
I2
I4
I5
tp97
(I0
I2
I4
tp98
tp99
a((I1
I2
I3
I6
I7
tp100
(I1
I2
I6
I7
tp101
tp102
a((I0
I1
I4
I6
I7
tp103
(I1
I4
I6
I7
tp104
tp105
a((I3
I4
I5
I6
I7
tp106
(I3
I4
I6
I7
tp107
tp108
a((I0
I1
I5
I6
I7
tp109
(I0
I1
I6
I7
tp110
tp111
a((I0
I3
I4
I5
I6
tp112
(I0
I3
I4
I6
tp113
tp114
a((I0
I1
I3
I4
I5
I6
I7
tp115
(I1
I3
I4
I5
I6
I7
tp116
tp117
a((I1
I2
I3
I5
I6
I7
tp118
(I1
I2
I3
I5
I7
tp119
tp120
a((I1
I2
I3
I4
I5
I6
tp121
(I1
I2
I3
I4
I6
tp122
tp123
a((I1
I2
I4
I5
I7
tp124
(I1
I2
I4
I7
tp125
tp126
a((I0
I1
I3
I5
I7
tp127
(I1
I3
I5
I7
tp128
tp129
a((I0
I1
I2
I3
tp130
(I0
I1
I2
tp131
tp132
a((I0
I4
I5
I6
tp133
(I0
I4
I6
tp134
tp135
a((I0
I3
I5
I7
tp136
(I0
I5
I7
tp137
tp138
a((I0
I1
I4
I6
tp139
(I1
I4
I6
tp140
tp141
a((I0
I3
I5
I6
I7
tp142
(I0
I3
I6
I7
tp143
tp144
a((I1
I2
I3
I4
I5
tp145
(I1
I3
I4
I5
tp146
tp147
a((I4
I5
I6
tp148
(I4
I6
tp149
tp150
a((I0
I3
I7
tp151
(I0
I7
tp152
tp153
a((I0
I1
I2
I3
I7
tp154
(I0
I1
I2
I7
tp155
tp156
a((I0
I5
I6
I7
tp157
(I0
I6
I7
tp158
tp159
a((I2
I3
I4
I5
I7
tp160
(I2
I3
I4
I7
tp161
tp162
a((I3
I5
I6
tp163
(I3
I6
tp164
tp165
a((I0
I1
I2
I5
I7
tp166
(I0
I2
I5
I7
tp167
tp168
a((I0
I2
I3
I6
tp169
(I0
I2
I6
tp170
tp171
a((I1
I2
I3
I4
I5
I7
tp172
(I1
I2
I3
I4
I7
tp173
tp174
a((I0
I5
I6
tp175
(I0
I6
tp176
tp177
a((I1
I2
I3
I4
I6
I7
tp178
(I2
I3
I4
I6
I7
tp179
tp180
a((I0
I1
I2
I3
I4
I5
I6
tp181
(I0
I1
I2
I3
I4
I6
tp182
tp183
a((I0
I1
I5
I6
tp184
(I0
I1
I6
tp185
tp186
a((I0
I2
I3
I6
I7
tp187
(I0
I2
I6
I7
tp188
tp189
a((I0
I1
I4
I5
I6
I7
tp190
(I1
I4
I5
I6
I7
tp191
tp192
a((I2
I3
I4
I5
tp193
(I2
I3
I5
tp194
tp195
a((I2
I4
I5
I6
I7
tp196
(I2
I4
I6
I7
tp197
tp198
a((I0
I1
I3
I4
tp199
(I0
I1
I4
tp200
tp201
a((I0
I1
I2
I3
I6
tp202
(I1
I2
I3
I6
tp203
tp204
a((I1
I2
I5
I7
tp205
(I2
I5
I7
tp206
tp207
a((I2
I3
I5
I6
tp208
(I2
I3
I6
tp209
tp210
a((I2
I3
I4
I5
I6
tp211
(I2
I3
I4
I6
tp212
tp213
a((I0
I1
I4
I5
I7
tp214
(I1
I4
I5
I7
tp215
tp216
a((I1
I2
I3
I5
tp217
(I1
I3
I5
tp218
tp219
a((I0
I1
I2
I5
I6
tp220
(I0
I1
I2
I6
tp221
tp222
a((I0
I1
I2
I5
I6
I7
tp223
(I0
I2
I5
I6
I7
tp224
tp225
a((I1
I2
I3
tp226
(I1
I3
tp227
tp228
a((I4
I5
I7
tp229
(I4
I7
tp230
tp231
a((I2
I3
tp232
(I2
tp233
tp234
a((I2
I5
I6
tp235
(I2
I6
tp236
tp237
a((I2
I3
I7
tp238
(I2
I7
tp239
tp240
a((I3
I4
I5
I6
tp241
(I3
I4
I6
tp242
tp243
a((I1
I2
I4
I5
I6
tp244
(I1
I2
I4
I6
tp245
tp246
a((I0
I1
I4
I7
tp247
(I1
I4
I7
tp248
tp249
a((I0
I2
I4
I5
I6
tp250
(I0
I2
I4
I6
tp251
tp252
a((I1
I5
I6
tp253
(I1
I6
tp254
tp255
a((I1
I3
I4
tp256
(I1
I4
tp257
tp258
a((I3
I4
tp259
(I4
tp260
tp261
a((I1
I2
I4
I5
tp262
(I1
I2
I5
tp263
tp264
a((I0
I4
I5
tp265
(I0
I5
tp266
tp267
a((I3
I5
I6
I7
tp268
(I3
I6
I7
tp269
tp270
a((I0
I2
I3
I4
I5
I6
tp271
(I0
I2
I3
I4
I6
tp272
tp273
a((I5
I6
tp274
(I6
tp275
tp276
a((I0
I2
I3
I4
I5
tp277
(I0
I2
I3
I4
tp278
tp279
a((I0
I1
I3
tp280
(I0
I3
tp281
tp282
a((I0
I1
I5
tp283
(I1
I5
tp284
tp285
a((I1
I2
tp286
(I1
tp287
tp288
a((I5
I6
I7
tp289
(I6
I7
tp290
tp291
a((I0
I1
I2
I4
I5
I6
I7
tp292
(I0
I1
I2
I4
I6
I7
tp293
tp294
a((I0
I2
I3
I7
tp295
(I0
I2
I7
tp296
tp297
a((I0
I1
I7
tp298
(I1
I7
tp299
tp300
a((I2
I4
I5
tp301
(I2
I5
tp302
tp303
a((I0
I1
I2
I3
I6
I7
tp304
(I0
I1
I2
I6
I7
tp305
tp306
a((I0
I1
I2
I4
I7
tp307
(I0
I2
I4
I7
tp308
tp309
a((I2
I4
I5
I6
tp310
(I2
I4
I6
tp311
tp312
a((I0
I2
I3
I4
I5
I7
tp313
(I0
I2
I3
I4
I7
tp314
tp315
a((I0
I1
I3
I4
I5
I7
tp316
(I1
I3
I4
I5
I7
tp317
tp318
a((I0
I1
I4
I5
I6
tp319
(I1
I4
I5
I6
tp320
tp321
a((I0
I1
I3
I4
I6
I7
tp322
(I1
I3
I4
I6
I7
tp323
tp324
a((I3
I4
I5
I7
tp325
(I3
I4
I7
tp326
tp327
a((I0
I1
I3
I7
tp328
(I1
I3
I7
tp329
tp330
a((I2
I3
I5
I6
I7
tp331
(I2
I3
I5
I7
tp332
tp333
a((I1
I2
I5
I6
tp334
(I1
I2
I6
tp335
tp336
a((I0
I1
I2
I3
I4
I5
tp337
(I0
I1
I2
I3
I4
tp338
tp339
a((I0
I4
I5
I6
I7
tp340
(I0
I4
I6
I7
tp341
tp342
a((I0
I1
I3
I4
I5
I6
tp343
(I0
I1
I3
I4
I6
tp344
tp345
a((I4
I5
I6
I7
tp346
(I4
I6
I7
tp347
tp348
a((I0
I3
I4
tp349
(I0
I4
tp350
tp351
a((I1
I2
I3
I4
tp352
(I1
I2
I4
tp353
tp354
a((I0
I1
I2
I4
I5
I6
tp355
(I0
I1
I2
I4
I6
tp356
tp357
a((I0
I2
I3
I5
I6
tp358
(I0
I2
I3
I5
tp359
tp360
a((I3
I5
I7
tp361
(I5
I7
tp362
tp363
a((I0
I1
I3
I4
I7
tp364
(I1
I3
I4
I7
tp365
tp366
a((I0
I4
I5
I7
tp367
(I0
I4
I7
tp368
tp369
a.