(lp0
((I0
I1
I5
I6
I8
tp1
(I1
I5
I6
I8
tp2
tp3
a((I0
I1
I4
I8
tp4
(I1
I4
I8
tp5
tp6
a((I0
I1
I3
I6
I7
tp7
(I1
I3
I6
I7
tp8
tp9
a((I0
I1
I4
I6
I7
tp10
(I1
I4
I6
I7
tp11
tp12
a((I0
I1
I4
I6
I7
I8
tp13
(I1
I4
I6
I7
I8
tp14
tp15
a((I0
I1
I2
I3
I6
I8
tp16
(I1
I2
I3
I6
I8
tp17
tp18
a((I0
I1
I8
tp19
(I1
I8
tp20
tp21
a((I0
I1
I2
I3
I5
tp22
(I1
I2
I3
I5
tp23
tp24
a((I0
I2
I3
I7
I8
tp25
(I2
I3
I7
I8
tp26
tp27
a((I0
I4
I6
I7
I8
tp28
(I4
I6
I7
I8
tp29
tp30
a((I0
I3
I4
I5
I7
tp31
(I3
I4
I5
I7
tp32
tp33
a((I1
I3
I7
tp34
(I1
I7
tp35
tp36
a((I0
I1
I3
I5
I6
tp37
(I1
I3
I5
I6
tp38
tp39
a((I0
I3
I5
I7
I8
tp40
(I3
I5
I7
I8
tp41
tp42
a((I2
I3
I6
tp43
(I2
I6
tp44
tp45
a((I0
I2
I4
I6
tp46
(I2
I4
I6
tp47
tp48
a((I0
I1
I2
I3
I5
I8
tp49
(I1
I2
I3
I5
I8
tp50
tp51
a((I1
tp52
(ttp53
a((I0
I6
I7
tp54
(I6
I7
tp55
tp56
a((I0
I4
I7
I8
tp57
(I4
I7
I8
tp58
tp59
a((I0
I5
tp60
(I5
tp61
tp62
a((I0
I1
I3
I7
I8
tp63
(I1
I3
I7
I8
tp64
tp65
a((I0
I1
I2
I3
I7
tp66
(I1
I2
I3
I7
tp67
tp68
a((I0
I2
I7
I8
tp69
(I2
I7
I8
tp70
tp71
a((I0
I2
I8
tp72
(I2
I8
tp73
tp74
a((I0
I3
I5
I6
I7
I8
tp75
(I3
I5
I6
I7
I8
tp76
tp77
a((I0
I2
I3
I5
tp78
(I2
I3
I5
tp79
tp80
a((I1
I3
I4
I6
I8
tp81
(I1
I4
I6
I8
tp82
tp83
a((I0
I5
I6
tp84
(I5
I6
tp85
tp86
a((I0
I2
I3
I6
I7
tp87
(I2
I3
I6
I7
tp88
tp89
a((I1
I2
I4
I6
I7
I8
tp90
(I1
I2
I4
I6
I8
tp91
tp92
a((I0
I4
I5
tp93
(I4
I5
tp94
tp95
a((I0
I3
I4
I6
tp96
(I3
I4
I6
tp97
tp98
a((I0
I1
I3
I4
tp99
(I1
I3
I4
tp100
tp101
a((I1
I2
I5
I7
tp102
(I1
I2
I5
tp103
tp104
a((I0
I1
I3
I4
I5
I6
I7
I8
tp105
(I1
I3
I4
I5
I6
I7
I8
tp106
tp107
a((I0
I1
I2
I3
I4
I7
I8
tp108
(I0
I1
I2
I3
I4
I8
tp109
tp110
a((I1
I2
I3
I4
I7
I8
tp111
(I1
I2
I3
I4
I8
tp112
tp113
a((I0
I5
I6
I7
I8
tp114
(I5
I6
I7
I8
tp115
tp116
a((I1
I3
I6
I7
I8
tp117
(I1
I3
I6
I8
tp118
tp119
a((I0
I3
I5
I6
tp120
(I3
I5
I6
tp121
tp122
a((I0
I1
I4
I7
tp123
(I1
I4
I7
tp124
tp125
a((I0
I1
I2
I3
I4
I6
I7
tp126
(I0
I1
I2
I4
I6
I7
tp127
tp128
a((I0
I1
I2
I4
I6
I7
I8
tp129
(I0
I1
I2
I4
I6
I8
tp130
tp131
a((I0
I2
I3
I4
I5
I6
tp132
(I2
I3
I4
I5
I6
tp133
tp134
a((I0
I5
I6
I8
tp135
(I5
I6
I8
tp136
tp137
a((I0
I3
I8
tp138
(I3
I8
tp139
tp140
a((I0
I3
I4
I5
I6
I7
I8
tp141
(I3
I4
I5
I6
I7
I8
tp142
tp143
a((I0
I3
I4
I7
I8
tp144
(I3
I4
I7
I8
tp145
tp146
a((I0
I2
I5
I8
tp147
(I2
I5
I8
tp148
tp149
a((I0
I2
I4
I5
I7
tp150
(I2
I4
I5
I7
tp151
tp152
a((I0
I2
I6
I7
I8
tp153
(I2
I6
I7
I8
tp154
tp155
a((I0
I1
I2
I4
I7
tp156
(I0
I1
I2
I4
tp157
tp158
a((I0
I3
I6
I8
tp159
(I3
I6
I8
tp160
tp161
a((I0
I1
I3
I4
I5
I7
tp162
(I1
I3
I4
I5
I7
tp163
tp164
a((I1
I2
I3
I4
I5
I7
I8
tp165
(I1
I2
I4
I5
I7
I8
tp166
tp167
a((I0
I2
I4
I7
tp168
(I2
I4
I7
tp169
tp170
a((I0
I2
I3
I5
I6
I7
tp171
(I2
I3
I5
I6
I7
tp172
tp173
a((I0
I5
I7
I8
tp174
(I5
I7
I8
tp175
tp176
a((I0
I1
I2
I3
I4
I7
tp177
(I1
I2
I3
I4
I7
tp178
tp179
a((I0
I7
tp180
(I7
tp181
tp182
a((I0
I5
I7
tp183
(I5
I7
tp184
tp185
a((I0
I1
I2
I3
I4
I6
I8
tp186
(I1
I2
I3
I4
I6
I8
tp187
tp188
a((I0
I2
I3
I5
I6
I7
I8
tp189
(I2
I3
I5
I6
I7
I8
tp190
tp191
a((I1
I2
I5
I7
I8
tp192
(I1
I2
I5
I8
tp193
tp194
a((I0
I2
I3
I4
I5
I7
I8
tp195
(I0
I2
I4
I5
I7
I8
tp196
tp197
a((I0
I1
I3
I4
I6
tp198
(I1
I3
I4
I6
tp199
tp200
a((I0
I4
I5
I6
I7
tp201
(I4
I5
I6
I7
tp202
tp203
a((I0
I1
I2
I3
I6
I7
tp204
(I0
I1
I2
I3
I6
tp205
tp206
a((I0
I2
I3
I4
tp207
(I2
I3
I4
tp208
tp209
a((I1
I2
I4
I5
I6
I7
tp210
(I1
I2
I5
I6
I7
tp211
tp212
a((I0
I2
I3
I8
tp213
(I0
I2
I3
tp214
tp215
a((I0
I1
I7
I8
tp216
(I1
I7
I8
tp217
tp218
a((I0
I4
I6
I7
tp219
(I4
I6
I7
tp220
tp221
a((I0
I3
I4
I5
tp222
(I3
I4
I5
tp223
tp224
a((I0
I1
I2
I3
I4
I5
I7
I8
tp225
(I0
I1
I2
I4
I5
I7
I8
tp226
tp227
a((I2
I5
I6
I7
I8
tp228
(I2
I5
I6
I8
tp229
tp230
a((I3
I4
I5
I6
I8
tp231
(I4
I5
I6
I8
tp232
tp233
a((I0
I2
I3
I4
I6
tp234
(I2
I3
I4
I6
tp235
tp236
a((I3
I6
tp237
(I6
tp238
tp239
a((I0
I3
I5
I7
tp240
(I3
I5
I7
tp241
tp242
a((I0
I1
I4
I6
tp243
(I1
I4
I6
tp244
tp245
a((I0
I1
I2
I3
I4
I5
I6
I7
tp246
(I0
I1
I2
I4
I5
I6
I7
tp247
tp248
a((I0
I5
I8
tp249
(I5
I8
tp250
tp251
a((I0
I5
I6
I7
tp252
(I5
I6
I7
tp253
tp254
a((I1
I2
I3
I4
I5
I6
I7
tp255
(I1
I2
I3
I5
I6
I7
tp256
tp257
a((I1
I3
tp258
(I3
tp259
tp260
a((I0
I1
I5
I8
tp261
(I1
I5
I8
tp262
tp263
a((I2
I3
I6
I8
tp264
(I2
I3
I8
tp265
tp266
a((I0
I1
I5
I6
tp267
(I1
I5
I6
tp268
tp269
a((I3
I4
I5
I7
I8
tp270
(I4
I5
I7
I8
tp271
tp272
a((I0
I1
I4
I5
I6
tp273
(I1
I4
I5
I6
tp274
tp275
a((I0
I3
I6
I7
tp276
(I3
I6
I7
tp277
tp278
a((I1
I2
I3
I4
I5
I8
tp279
(I1
I2
I4
I5
I8
tp280
tp281
a((I1
I2
I4
I7
I8
tp282
(I1
I2
I4
I7
tp283
tp284
a((I0
I2
I4
I8
tp285
(I2
I4
I8
tp286
tp287
a((I2
I3
tp288
(I2
tp289
tp290
a((I0
I2
I3
I4
I5
I6
I8
tp291
(I0
I2
I4
I5
I6
I8
tp292
tp293
a((I0
I1
I2
I4
I7
I8
tp294
(I0
I1
I2
I4
I8
tp295
tp296
a((I0
I1
I2
I3
I8
tp297
(I1
I2
I3
I8
tp298
tp299
a((I0
I4
I7
tp300
(I4
I7
tp301
tp302
a((I1
I3
I4
I5
I6
I8
tp303
(I1
I4
I5
I6
I8
tp304
tp305
a((I0
I6
I8
tp306
(I6
I8
tp307
tp308
a((I0
I1
I3
tp309
(I0
I1
tp310
tp311
a((I0
I2
I3
I5
I7
tp312
(I2
I3
I5
I7
tp313
tp314
a((I0
I2
I3
I7
tp315
(I2
I3
I7
tp316
tp317
a((I0
I1
I3
I4
I5
I8
tp318
(I0
I1
I4
I5
I8
tp319
tp320
a((I0
I1
I3
I6
I7
I8
tp321
(I0
I1
I3
I6
I8
tp322
tp323
a((I0
I2
I4
I5
I8
tp324
(I0
I4
I5
I8
tp325
tp326
a((I1
I2
I3
I5
I6
I7
I8
tp327
(I1
I2
I3
I5
I6
I8
tp328
tp329
a((I0
I1
I4
I5
I6
I7
I8
tp330
(I1
I4
I5
I6
I7
I8
tp331
tp332
a((I0
I2
I3
I4
I6
I7
tp333
(I2
I3
I4
I6
I7
tp334
tp335
a((I0
I3
I6
tp336
(I0
I6
tp337
tp338
a((I0
I2
I5
I7
I8
tp339
(I2
I5
I7
I8
tp340
tp341
a((I0
I2
I3
I5
I8
tp342
(I2
I3
I5
I8
tp343
tp344
a((I0
I1
I2
I3
I4
I6
tp345
(I0
I1
I2
I4
I6
tp346
tp347
a((I0
I1
I5
I7
I8
tp348
(I1
I5
I7
I8
tp349
tp350
a((I0
I1
I3
I4
I8
tp351
(I1
I3
I4
I8
tp352
tp353
a((I0
I1
I2
I3
I5
I6
tp354
(I1
I2
I3
I5
I6
tp355
tp356
a((I0
I1
I3
I4
I7
I8
tp357
(I1
I3
I4
I7
I8
tp358
tp359
a((I0
I1
I3
I5
I6
I7
tp360
(I1
I3
I5
I6
I7
tp361
tp362
a((I3
I4
I6
I8
tp363
(I4
I6
I8
tp364
tp365
a((I1
I2
I6
I8
tp366
(I2
I6
I8
tp367
tp368
a((I0
I7
I8
tp369
(I7
I8
tp370
tp371
a((I0
I3
I5
I8
tp372
(I3
I5
I8
tp373
tp374
a((I0
I2
I5
tp375
(I2
I5
tp376
tp377
a((I0
I4
tp378
(I4
tp379
tp380
a((I1
I2
I4
tp381
(I2
I4
tp382
tp383
a((I0
I1
I5
I7
tp384
(I1
I5
I7
tp385
tp386
a((I0
I2
I3
I4
I6
I7
I8
tp387
(I2
I3
I4
I6
I7
I8
tp388
tp389
a((I0
I1
I3
I5
I8
tp390
(I1
I3
I5
I8
tp391
tp392
a((I0
I4
I6
tp393
(I4
I6
tp394
tp395
a((I0
I3
I4
I5
I6
I8
tp396
(I0
I4
I5
I6
I8
tp397
tp398
a((I0
I2
I3
I4
I5
I8
tp399
(I0
I3
I4
I5
I8
tp400
tp401
a((I0
I2
I4
I5
tp402
(I2
I4
I5
tp403
tp404
a((I0
I1
I2
I3
I4
tp405
(I1
I2
I3
I4
tp406
tp407
a((I0
I1
I4
tp408
(I1
I4
tp409
tp410
a((I0
I3
I5
I6
I8
tp411
(I3
I5
I6
I8
tp412
tp413
a((I0
I2
I5
I6
I7
tp414
(I2
I5
I6
I7
tp415
tp416
a((I0
I3
I4
I5
I6
tp417
(I3
I4
I5
I6
tp418
tp419
a((I0
I1
I2
I3
I5
I6
I7
tp420
(I0
I1
I2
I5
I6
I7
tp421
tp422
a((I1
I2
I3
I4
I5
I6
tp423
(I1
I2
I4
I5
I6
tp424
tp425
a((I0
I1
I3
I5
I7
tp426
(I1
I3
I5
I7
tp427
tp428
a((I0
I1
I2
I5
I7
I8
tp429
(I0
I1
I2
I5
I7
tp430
tp431
a((I0
I1
I2
I3
tp432
(I1
I2
I3
tp433
tp434
a((I1
I2
I4
I8
tp435
(I1
I2
I8
tp436
tp437
a((I0
I3
I7
I8
tp438
(I3
I7
I8
tp439
tp440
a((I0
I2
I3
I4
I5
I6
I7
tp441
(I2
I3
I4
I5
I6
I7
tp442
tp443
a((I0
I3
I4
I5
I6
I7
tp444
(I3
I4
I5
I6
I7
tp445
tp446
a((I0
I8
tp447
(I8
tp448
tp449
a((I0
I3
I7
tp450
(I3
I7
tp451
tp452
a((I0
I2
I3
I4
I6
I8
tp453
(I2
I3
I4
I6
I8
tp454
tp455
a((I0
I2
I3
I6
tp456
(I0
I2
I6
tp457
tp458
a((I1
I2
I3
I4
I6
I7
tp459
(I1
I2
I3
I4
I6
tp460
tp461
a((I0
I1
I4
I7
I8
tp462
(I1
I4
I7
I8
tp463
tp464
a((I0
I2
I4
I6
I7
tp465
(I2
I4
I6
I7
tp466
tp467
a((I0
I1
I4
I5
I6
I7
tp468
(I1
I4
I5
I6
I7
tp469
tp470
a((I1
I2
I4
I5
I6
I7
I8
tp471
(I1
I2
I4
I5
I6
I8
tp472
tp473
a((I0
I2
I4
I6
I7
I8
tp474
(I2
I4
I6
I7
I8
tp475
tp476
a((I1
I2
I4
I5
I7
tp477
(I1
I2
I4
I5
tp478
tp479
a((I3
I4
I5
I8
tp480
(I4
I5
I8
tp481
tp482
a((I0
I2
I4
tp483
(I0
I2
tp484
tp485
a((I0
I1
I2
I3
I4
I5
I6
tp486
(I0
I1
I2
I4
I5
I6
tp487
tp488
a((I0
I2
I6
I7
tp489
(I2
I6
I7
tp490
tp491
a((I0
I4
I8
tp492
(I4
I8
tp493
tp494
a((I0
I2
I3
I6
I8
tp495
(I0
I2
I6
I8
tp496
tp497
a((I0
I1
I2
I7
I8
tp498
(I0
I1
I2
I7
tp499
tp500
a((I0
I4
I5
I7
tp501
(I4
I5
I7
tp502
tp503
a((I0
I2
I4
I5
I6
tp504
(I2
I4
I5
I6
tp505
tp506
a((I0
I3
I5
I6
I7
tp507
(I3
I5
I6
I7
tp508
tp509
a((I0
I1
I2
I3
I4
I6
I7
I8
tp510
(I1
I2
I3
I4
I6
I7
I8
tp511
tp512
a((I0
I3
I4
I6
I8
tp513
(I0
I4
I6
I8
tp514
tp515
a((I0
I1
I5
tp516
(I1
I5
tp517
tp518
a((I1
I2
I6
I7
I8
tp519
(I1
I2
I6
I7
tp520
tp521
a((I0
I1
I2
I4
I5
I6
I7
I8
tp522
(I0
I1
I2
I4
I5
I6
I8
tp523
tp524
a((I0
I1
I3
I4
I6
I7
I8
tp525
(I1
I3
I4
I6
I7
I8
tp526
tp527
a((I0
I1
I2
I3
I4
I5
I7
tp528
(I1
I2
I3
I4
I5
I7
tp529
tp530
a((I0
I2
I3
I4
I5
I7
tp531
(I2
I3
I4
I5
I7
tp532
tp533
a((I0
I3
I4
I5
I7
I8
tp534
(I0
I4
I5
I7
I8
tp535
tp536
a((I0
I3
I4
I6
I7
tp537
(I3
I4
I6
I7
tp538
tp539
a((I0
I1
I2
I6
I7
I8
tp540
(I0
I1
I2
I6
I8
tp541
tp542
a((I0
I1
I2
I3
I4
I5
tp543
(I1
I2
I3
I4
I5
tp544
tp545
a((I0
I1
I2
I3
I5
I7
tp546
(I1
I2
I3
I5
I7
tp547
tp548
a((I0
I1
I3
I4
I6
I8
tp549
(I0
I1
I4
I6
I8
tp550
tp551
a((I0
I3
I4
tp552
(I3
I4
tp553
tp554
a((I0
I6
I7
I8
tp555
(I6
I7
I8
tp556
tp557
a((I0
I1
I3
I4
I7
tp558
(I1
I3
I4
I7
tp559
tp560
a((I0
I1
I2
I4
I5
I7
tp561
(I0
I1
I2
I4
I5
tp562
tp563
a((I0
I1
I6
I7
tp564
(I1
I6
I7
tp565
tp566
a((I0
I1
I2
I8
tp567
(I0
I1
I2
tp568
tp569
a((I0
I3
I6
I7
I8
tp570
(I3
I6
I7
I8
tp571
tp572
a((I1
I2
I5
I6
I7
I8
tp573
(I1
I2
I5
I6
I8
tp574
tp575
a((I0
I2
I7
tp576
(I2
I7
tp577
tp578
a((I0
I1
I3
I5
I6
I8
tp579
(I1
I3
I5
I6
I8
tp580
tp581
a((I1
I2
I3
I6
I7
tp582
(I1
I2
I3
I6
tp583
tp584
a((I0
I1
I2
I3
I6
I7
I8
tp585
(I1
I2
I3
I6
I7
I8
tp586
tp587
a((I1
I2
I4
I6
I7
tp588
(I1
I2
I4
I6
tp589
tp590
a((I0
I2
I4
I5
I6
I7
tp591
(I2
I4
I5
I6
I7
tp592
tp593
a((I1
I2
I6
tp594
(I1
I2
tp595
tp596
a((I0
I1
I3
I6
tp597
(I1
I3
I6
tp598
tp599
a((I0
I1
I3
I8
tp600
(I1
I3
I8
tp601
tp602
a((I0
I1
I3
I4
I5
tp603
(I1
I3
I4
I5
tp604
tp605
a((I0
I1
I3
I4
I5
I6
I8
tp606
(I0
I1
I4
I5
I6
I8
tp607
tp608
a((I0
I2
I3
I5
I7
I8
tp609
(I2
I3
I5
I7
I8
tp610
tp611
a((I0
I2
I3
I6
I7
I8
tp612
(I2
I3
I6
I7
I8
tp613
tp614
a((I1
I3
I4
I5
I7
I8
tp615
(I1
I4
I5
I7
I8
tp616
tp617
a((I0
I1
I6
tp618
(I1
I6
tp619
tp620
a((I0
I1
I3
I5
I7
I8
tp621
(I1
I3
I5
I7
I8
tp622
tp623
a((I0
I3
I4
I7
tp624
(I3
I4
I7
tp625
tp626
a((I0
I1
I5
I6
I7
I8
tp627
(I1
I5
I6
I7
I8
tp628
tp629
a((I0
I1
I4
I5
tp630
(I1
I4
I5
tp631
tp632
a((I0
I4
I5
I6
tp633
(I4
I5
I6
tp634
tp635
a((I0
I1
I2
I5
I6
I7
I8
tp636
(I0
I1
I2
I5
I6
I8
tp637
tp638
a((I0
I2
I4
I6
I8
tp639
(I2
I4
I6
I8
tp640
tp641
a((I0
I2
I4
I5
I6
I7
I8
tp642
(I2
I4
I5
I6
I7
I8
tp643
tp644
a((I2
I3
I5
I6
tp645
(I2
I5
I6
tp646
tp647
a((I0
I1
I4
I5
I7
tp648
(I1
I4
I5
I7
tp649
tp650
a((I0
I2
I5
I7
tp651
(I2
I5
I7
tp652
tp653
a((I0
I1
I3
I5
tp654
(I1
I3
I5
tp655
tp656
a((I0
I3
I5
tp657
(I3
I5
tp658
tp659
a((I0
I2
I3
I5
I6
I8
tp660
(I2
I3
I5
I6
I8
tp661
tp662
a((I0
I3
I4
I8
tp663
(I3
I4
I8
tp664
tp665
a((I0
I2
I3
I4
I7
tp666
(I2
I3
I4
I7
tp667
tp668
a((I0
I2
I5
I6
I7
I8
tp669
(I0
I2
I5
I6
I8
tp670
tp671
a((I0
I1
I2
I6
I7
tp672
(I0
I1
I2
I6
tp673
tp674
a((I0
I1
I2
I3
I5
I7
I8
tp675
(I1
I2
I3
I5
I7
I8
tp676
tp677
a((I0
I3
I4
I6
I7
I8
tp678
(I3
I4
I6
I7
I8
tp679
tp680
a((I1
I2
I7
I8
tp681
(I1
I2
I7
tp682
tp683
a((I0
I1
I2
I3
I4
I5
I8
tp684
(I0
I1
I2
I4
I5
I8
tp685
tp686
a((I0
I1
I3
I4
I5
I6
I7
tp687
(I1
I3
I4
I5
I6
I7
tp688
tp689
a((I0
I1
I2
I5
I6
tp690
(I0
I1
I2
I5
tp691
tp692
a((I0
I1
I2
I3
I5
I6
I7
I8
tp693
(I0
I1
I2
I3
I5
I6
I8
tp694
tp695
a((I0
I2
I4
I7
I8
tp696
(I2
I4
I7
I8
tp697
tp698
a((I1
I3
I4
I5
I8
tp699
(I1
I4
I5
I8
tp700
tp701
a((I0
I1
I6
I8
tp702
(I1
I6
I8
tp703
tp704
a((I0
I1
I6
I7
I8
tp705
(I1
I6
I7
I8
tp706
tp707
a((I0
I1
I3
I4
I5
I7
I8
tp708
(I0
I1
I4
I5
I7
I8
tp709
tp710
a((I0
I2
I3
I4
I7
I8
tp711
(I2
I3
I4
I7
I8
tp712
tp713
a((I0
I2
I3
I4
I5
tp714
(I2
I3
I4
I5
tp715
tp716
a((I0
I4
I5
I6
I7
I8
tp717
(I4
I5
I6
I7
I8
tp718
tp719
a((I2
I3
I4
I5
I7
I8
tp720
(I2
I4
I5
I7
I8
tp721
tp722
a((I0
I3
tp723
(I0
tp724
tp725
a((I0
I2
I3
I4
I5
I6
I7
I8
tp726
(I2
I3
I4
I5
I6
I7
I8
tp727
tp728
a((I0
I1
I5
I6
I7
tp729
(I1
I5
I6
I7
tp730
tp731
a((I2
I3
I4
I5
I8
tp732
(I2
I4
I5
I8
tp733
tp734
a((I0
I1
I3
I4
I6
I7
tp735
(I1
I3
I4
I6
I7
tp736
tp737
a((I0
I1
I3
I7
tp738
(I0
I1
I7
tp739
tp740
a((I0
I2
I3
I4
I8
tp741
(I2
I3
I4
I8
tp742
tp743
a((I0
I1
I2
I3
I7
I8
tp744
(I1
I2
I3
I7
I8
tp745
tp746
a((I0
I1
I3
I4
I5
I6
tp747
(I1
I3
I4
I5
I6
tp748
tp749
a((I0
I2
I3
I5
I6
tp750
(I0
I2
I5
I6
tp751
tp752
a((I0
I1
I3
I5
I6
I7
I8
tp753
(I1
I3
I5
I6
I7
I8
tp754
tp755
a((I2
I3
I4
I5
I6
I8
tp756
(I2
I4
I5
I6
I8
tp757
tp758
a.