(lp0
((I0
I1
I2
I4
I5
I6
I8
tp1
(I0
I2
I4
I5
I6
I8
tp2
tp3
a((I1
I2
I8
tp4
(I2
I8
tp5
tp6
a((I0
I1
I5
I6
I8
tp7
(I1
I5
I6
I8
tp8
tp9
a((I0
I1
I3
I6
I7
tp10
(I1
I3
I6
I7
tp11
tp12
a((I0
I1
I4
I6
I7
tp13
(I1
I4
I6
I7
tp14
tp15
a((I0
I1
I4
I6
I7
I8
tp16
(I1
I4
I6
I7
I8
tp17
tp18
a((I4
I6
I7
I8
tp19
(I4
I6
I8
tp20
tp21
a((I1
I2
I5
tp22
(I2
I5
tp23
tp24
a((I0
I1
I2
I3
I6
I8
tp25
(I1
I2
I3
I6
I8
tp26
tp27
a((I0
I1
I8
tp28
(I1
I8
tp29
tp30
a((I4
I5
tp31
(I4
tp32
tp33
a((I0
I1
I2
I3
I5
tp34
(I0
I2
I3
I5
tp35
tp36
a((I0
I1
I3
I6
I8
tp37
(I1
I3
I6
I8
tp38
tp39
a((I0
I1
I3
I5
I6
tp40
(I1
I3
I5
I6
tp41
tp42
a((I1
I2
I4
I5
I7
I8
tp43
(I2
I4
I5
I7
I8
tp44
tp45
a((I1
I4
I5
I8
tp46
(I1
I4
I8
tp47
tp48
a((I0
I3
I5
I7
I8
tp49
(I0
I3
I7
I8
tp50
tp51
a((I0
I1
I2
I3
I5
I8
tp52
(I0
I1
I3
I5
I8
tp53
tp54
a((I0
I6
I7
tp55
(I0
I6
tp56
tp57
a((I0
I1
I2
I6
tp58
(I0
I2
I6
tp59
tp60
a((I0
I1
I3
I7
I8
tp61
(I1
I3
I7
I8
tp62
tp63
a((I0
I1
I2
I3
I7
tp64
(I1
I2
I3
I7
tp65
tp66
a((I0
I1
I2
I3
I4
I8
tp67
(I0
I2
I3
I4
I8
tp68
tp69
a((I0
I1
I4
I6
I8
tp70
(I1
I4
I6
I8
tp71
tp72
a((I0
I1
I2
I5
I8
tp73
(I0
I2
I5
I8
tp74
tp75
a((I0
I3
I5
I6
I7
I8
tp76
(I0
I3
I5
I6
I8
tp77
tp78
a((I2
I3
I5
I6
I7
I8
tp79
(I2
I3
I5
I6
I8
tp80
tp81
a((I0
I2
I3
I6
I7
tp82
(I0
I2
I3
I7
tp83
tp84
a((I1
I2
I4
I6
I7
I8
tp85
(I1
I2
I4
I6
I8
tp86
tp87
a((I0
I4
I5
tp88
(I0
I5
tp89
tp90
a((I2
I4
I5
I6
I7
tp91
(I2
I4
I6
I7
tp92
tp93
a((I0
I1
I3
I4
tp94
(I1
I3
I4
tp95
tp96
a((I1
I2
I5
I7
tp97
(I2
I5
I7
tp98
tp99
a((I0
I1
I3
I4
I5
I6
I7
I8
tp100
(I1
I3
I4
I5
I6
I7
I8
tp101
tp102
a((I0
I5
I6
I7
I8
tp103
(I0
I5
I6
I8
tp104
tp105
a((I1
I2
I4
I5
I6
tp106
(I2
I4
I5
I6
tp107
tp108
a((I0
I3
I5
I6
tp109
(I0
I3
I6
tp110
tp111
a((I0
I1
I4
I7
tp112
(I0
I4
I7
tp113
tp114
a((I0
I1
I2
I3
I4
I6
I7
tp115
(I0
I2
I3
I4
I6
I7
tp116
tp117
a((I0
I1
I4
I5
I8
tp118
(I0
I1
I4
I8
tp119
tp120
a((I0
I1
I2
I4
I8
tp121
(I0
I2
I4
I8
tp122
tp123
a((I0
I1
I2
I4
I6
I7
I8
tp124
(I0
I2
I4
I6
I7
I8
tp125
tp126
a((I1
I2
I3
I4
I6
I7
I8
tp127
(I2
I3
I4
I6
I7
I8
tp128
tp129
a((I2
I4
I5
I6
I7
I8
tp130
(I2
I4
I5
I6
I8
tp131
tp132
a((I3
I4
tp133
(I3
tp134
tp135
a((I5
I6
tp136
(I5
tp137
tp138
a((I2
I3
I7
tp139
(I2
I7
tp140
tp141
a((I0
I3
I4
I5
I6
I7
I8
tp142
(I0
I3
I4
I5
I6
I8
tp143
tp144
a((I0
I1
I2
I4
I5
I6
I7
tp145
(I0
I2
I4
I5
I6
I7
tp146
tp147
a((I3
I4
I7
I8
tp148
(I4
I7
I8
tp149
tp150
a((I1
I3
I4
I7
tp151
(I1
I4
I7
tp152
tp153
a((I0
I1
I2
I4
I7
tp154
(I0
I2
I4
I7
tp155
tp156
a((I0
I1
I3
I4
I5
I7
tp157
(I1
I3
I4
I5
I7
tp158
tp159
a((I1
I2
I3
I4
I5
I7
I8
tp160
(I1
I2
I3
I4
I7
I8
tp161
tp162
a((I3
I4
I6
I7
I8
tp163
(I3
I4
I6
I8
tp164
tp165
a((I0
I2
I3
I5
I6
I7
tp166
(I0
I2
I3
I5
I7
tp167
tp168
a((I0
I5
I7
I8
tp169
(I0
I7
I8
tp170
tp171
a((I0
I1
I2
I3
I4
I7
tp172
(I0
I2
I3
I4
I7
tp173
tp174
a((I0
I1
I2
I5
tp175
(I0
I2
I5
tp176
tp177
a((I0
I1
I2
I3
I4
I6
I8
tp178
(I0
I2
I3
I4
I6
I8
tp179
tp180
a((I5
I8
tp181
(I8
tp182
tp183
a((I6
I7
tp184
(I6
tp185
tp186
a((I0
I2
I3
I5
I6
I7
I8
tp187
(I0
I2
I3
I5
I7
I8
tp188
tp189
a((I0
I2
I3
tp190
(I0
I3
tp191
tp192
a((I3
I5
I6
I7
I8
tp193
(I3
I5
I6
I8
tp194
tp195
a((I1
I2
I5
I7
I8
tp196
(I2
I5
I7
I8
tp197
tp198
a((I1
I2
I3
I4
I8
tp199
(I2
I3
I4
I8
tp200
tp201
a((I2
I3
I4
I5
I6
I7
tp202
(I2
I3
I4
I5
I7
tp203
tp204
a((I0
I1
I3
I4
I6
tp205
(I1
I3
I4
I6
tp206
tp207
a((I2
I4
I6
I7
I8
tp208
(I2
I4
I6
I8
tp209
tp210
a((I3
I4
I5
I6
I7
I8
tp211
(I3
I4
I5
I6
I8
tp212
tp213
a((I1
I2
I3
I4
I5
I6
I8
tp214
(I2
I3
I4
I5
I6
I8
tp215
tp216
a((I0
I4
I5
I6
I7
tp217
(I0
I5
I6
I7
tp218
tp219
a((I0
I1
I2
I3
I6
I7
tp220
(I1
I2
I3
I6
I7
tp221
tp222
a((I1
I2
I4
I5
I6
I7
tp223
(I1
I2
I4
I6
I7
tp224
tp225
a((I0
I2
I3
I8
tp226
(I0
I3
I8
tp227
tp228
a((I0
I1
I7
I8
tp229
(I1
I7
I8
tp230
tp231
a((I0
I4
I6
I7
tp232
(I0
I4
I6
tp233
tp234
a((I0
I3
I4
I5
tp235
(I0
I3
I5
tp236
tp237
a((I4
I6
I7
tp238
(I4
I6
tp239
tp240
a((I0
I1
I2
tp241
(I0
I2
tp242
tp243
a((I0
I1
I2
I4
I5
I8
tp244
(I0
I2
I4
I5
I8
tp245
tp246
a((I0
I1
I2
I3
I4
I5
I7
I8
tp247
(I0
I2
I3
I4
I5
I7
I8
tp248
tp249
a((I2
I5
I6
I7
I8
tp250
(I2
I5
I6
I8
tp251
tp252
a((I1
I2
I3
I5
I8
tp253
(I1
I2
I3
I8
tp254
tp255
a((I0
I1
I4
I6
tp256
(I1
I4
I6
tp257
tp258
a((I1
I2
I6
I7
tp259
(I2
I6
I7
tp260
tp261
a((I0
I1
I2
I3
I4
I5
I6
I7
tp262
(I1
I2
I3
I4
I5
I6
I7
tp263
tp264
a((I0
I5
I8
tp265
(I0
I8
tp266
tp267
a((I0
I1
I2
I5
I7
tp268
(I0
I2
I5
I7
tp269
tp270
a((I0
I1
I5
I8
tp271
(I1
I5
I8
tp272
tp273
a((I0
I1
I2
I4
I6
I8
tp274
(I0
I2
I4
I6
I8
tp275
tp276
a((I0
I1
I5
I6
tp277
(I0
I5
I6
tp278
tp279
a((I3
I4
I5
I7
I8
tp280
(I4
I5
I7
I8
tp281
tp282
a((I1
I2
I3
I4
I6
I8
tp283
(I2
I3
I4
I6
I8
tp284
tp285
a((I0
I1
I4
I5
I6
tp286
(I1
I4
I5
I6
tp287
tp288
a((I0
I3
I6
I7
tp289
(I0
I3
I7
tp290
tp291
a((I1
I2
I3
I4
I5
I8
tp292
(I1
I2
I4
I5
I8
tp293
tp294
a((I3
I5
I7
I8
tp295
(I3
I7
I8
tp296
tp297
a((I0
I1
I4
I5
I7
I8
tp298
(I0
I4
I5
I7
I8
tp299
tp300
a((I1
I2
I4
I7
I8
tp301
(I2
I4
I7
I8
tp302
tp303
a((I2
I3
tp304
(I2
tp305
tp306
a((I0
I1
I2
I4
tp307
(I0
I2
I4
tp308
tp309
a((I0
I1
I2
I4
I7
I8
tp310
(I0
I2
I4
I7
I8
tp311
tp312
a((I0
I1
I2
I3
I8
tp313
(I0
I1
I3
I8
tp314
tp315
a((I1
I2
I4
I5
tp316
(I2
I4
I5
tp317
tp318
a((I0
I1
I3
tp319
(I1
I3
tp320
tp321
a((I5
I7
I8
tp322
(I7
I8
tp323
tp324
a((I5
I6
I7
I8
tp325
(I5
I6
I8
tp326
tp327
a((I5
I6
I7
tp328
(I5
I7
tp329
tp330
a((I0
I1
I3
I4
I5
I8
tp331
(I0
I3
I4
I5
I8
tp332
tp333
a((I0
I1
I3
I6
I7
I8
tp334
(I1
I3
I6
I7
I8
tp335
tp336
a((I3
I6
I7
tp337
(I3
I6
tp338
tp339
a((I0
I1
I4
I5
I6
I7
I8
tp340
(I1
I4
I5
I6
I7
I8
tp341
tp342
a((I6
I7
I8
tp343
(I6
I8
tp344
tp345
a((I3
I4
I5
I6
tp346
(I3
I5
I6
tp347
tp348
a((I1
I3
I5
I8
tp349
(I1
I3
I8
tp350
tp351
a((I4
I5
I7
tp352
(I4
I7
tp353
tp354
a((I0
I2
I3
I5
I8
tp355
(I0
I3
I5
I8
tp356
tp357
a((I0
I1
I2
I3
I4
I6
tp358
(I0
I2
I3
I4
I6
tp359
tp360
a((I0
I1
I5
I7
I8
tp361
(I1
I5
I7
I8
tp362
tp363
a((I0
I1
I3
I4
I8
tp364
(I0
I3
I4
I8
tp365
tp366
a((I0
I1
I2
I3
I5
I6
tp367
(I1
I2
I3
I5
I6
tp368
tp369
a((I0
I1
I3
I4
I7
I8
tp370
(I1
I3
I4
I7
I8
tp371
tp372
a((I0
I1
I3
I5
I6
I7
tp373
(I1
I3
I5
I6
I7
tp374
tp375
a((I1
I4
I5
I7
I8
tp376
(I1
I4
I7
I8
tp377
tp378
a((I2
I3
I5
I8
tp379
(I2
I3
I8
tp380
tp381
a((I0
I4
I5
I8
tp382
(I0
I4
I8
tp383
tp384
a((I1
I2
I6
I8
tp385
(I2
I6
I8
tp386
tp387
a((I1
I2
I3
I4
I7
tp388
(I2
I3
I4
I7
tp389
tp390
a((I1
I2
I4
tp391
(I2
I4
tp392
tp393
a((I2
I3
I6
I7
tp394
(I2
I3
I6
tp395
tp396
a((I0
I1
I5
I7
tp397
(I1
I5
I7
tp398
tp399
a((I0
I2
I3
I4
I6
I7
I8
tp400
(I0
I2
I3
I4
I7
I8
tp401
tp402
a((I0
I1
I2
I3
I4
tp403
(I0
I2
I3
I4
tp404
tp405
a((I0
I1
I4
tp406
(I1
I4
tp407
tp408
a((I3
I4
I5
I6
I7
tp409
(I3
I4
I5
I7
tp410
tp411
a((I0
I3
I4
I5
I6
tp412
(I0
I4
I5
I6
tp413
tp414
a((I0
I1
I2
I3
I5
I6
I7
tp415
(I1
I2
I3
I5
I6
I7
tp416
tp417
a((I1
I2
I3
I4
I5
I6
tp418
(I1
I2
I3
I4
I6
tp419
tp420
a((I0
I1
I3
I5
I7
tp421
(I1
I3
I5
I7
tp422
tp423
a((I0
I1
I2
I5
I7
I8
tp424
(I0
I2
I5
I7
I8
tp425
tp426
a((I0
I1
I2
I3
tp427
(I1
I2
I3
tp428
tp429
a((I1
I2
I4
I8
tp430
(I2
I4
I8
tp431
tp432
a((I1
I2
I3
I4
I5
tp433
(I1
I2
I3
I5
tp434
tp435
a((I0
I2
I3
I4
I5
I6
I7
tp436
(I0
I2
I3
I4
I5
I7
tp437
tp438
a((I0
I3
I4
I5
I6
I7
tp439
(I0
I3
I4
I5
I7
tp440
tp441
a((I1
I2
I3
I4
I6
I7
tp442
(I2
I3
I4
I6
I7
tp443
tp444
a((I0
I1
I4
I7
I8
tp445
(I0
I4
I7
I8
tp446
tp447
a((I0
I1
I2
I5
I6
I8
tp448
(I0
I2
I5
I6
I8
tp449
tp450
a((I0
I1
I4
I5
I6
I7
tp451
(I1
I4
I5
I6
I7
tp452
tp453
a((I1
I2
I4
I5
I6
I7
I8
tp454
(I1
I2
I4
I5
I6
I8
tp455
tp456
a((I2
I3
I4
I5
tp457
(I3
I4
I5
tp458
tp459
a((I1
I2
I4
I5
I7
tp460
(I2
I4
I5
I7
tp461
tp462
a((I3
I4
I5
I8
tp463
(I4
I5
I8
tp464
tp465
a((I0
I1
I2
I3
I6
tp466
(I1
I2
I3
I6
tp467
tp468
a((I0
I1
I2
I3
I4
I5
I6
tp469
(I0
I2
I3
I4
I5
I6
tp470
tp471
a((I0
I1
I2
I7
I8
tp472
(I0
I2
I7
I8
tp473
tp474
a((I0
I4
I5
I7
tp475
(I0
I5
I7
tp476
tp477
a((I0
I1
I2
I4
I6
tp478
(I0
I2
I4
I6
tp479
tp480
a((I0
I3
I5
I6
I7
tp481
(I0
I3
I5
I7
tp482
tp483
a((I0
I1
I2
I3
I4
I6
I7
I8
tp484
(I0
I1
I2
I3
I4
I7
I8
tp485
tp486
a((I0
I1
I4
I5
I6
I8
tp487
(I1
I4
I5
I6
I8
tp488
tp489
a((I0
I3
I4
I6
I8
tp490
(I0
I4
I6
I8
tp491
tp492
a((I0
I1
I5
tp493
(I1
I5
tp494
tp495
a((I1
I2
I6
I7
I8
tp496
(I2
I6
I7
I8
tp497
tp498
a((I0
I1
I2
I4
I5
I6
I7
I8
tp499
(I0
I2
I4
I5
I6
I7
I8
tp500
tp501
a((I0
I1
I3
I4
I6
I7
I8
tp502
(I1
I3
I4
I6
I7
I8
tp503
tp504
a((I0
I1
I2
I3
I4
I5
I7
tp505
(I1
I2
I3
I4
I5
I7
tp506
tp507
a((I2
I3
I5
I7
I8
tp508
(I2
I3
I7
I8
tp509
tp510
a((I0
I3
I4
I5
I7
I8
tp511
(I0
I3
I4
I7
I8
tp512
tp513
a((I2
I3
I6
I7
I8
tp514
(I2
I3
I6
I8
tp515
tp516
a((I0
I3
I4
I6
I7
tp517
(I0
I3
I4
I6
tp518
tp519
a((I0
I1
I2
I6
I7
I8
tp520
(I0
I2
I6
I7
I8
tp521
tp522
a((I0
I1
I2
I3
I4
I5
tp523
(I0
I2
I3
I4
I5
tp524
tp525
a((I0
I1
I2
I6
I8
tp526
(I0
I2
I6
I8
tp527
tp528
a((I0
I1
I2
I4
I5
tp529
(I0
I2
I4
I5
tp530
tp531
a((I0
I1
I2
I3
I5
I7
tp532
(I1
I2
I3
I5
I7
tp533
tp534
a((I0
I1
I3
I4
I6
I8
tp535
(I1
I3
I4
I6
I8
tp536
tp537
a((I0
I3
I4
tp538
(I0
I4
tp539
tp540
a((I1
I2
I3
I4
tp541
(I2
I3
I4
tp542
tp543
a((I0
I6
I7
I8
tp544
(I0
I6
I8
tp545
tp546
a((I0
I1
I3
I4
I7
tp547
(I0
I3
I4
I7
tp548
tp549
a((I0
I1
I2
I4
I5
I7
tp550
(I0
I2
I4
I5
I7
tp551
tp552
a((I1
I2
I5
I6
I7
tp553
(I2
I5
I6
I7
tp554
tp555
a((I0
I1
I6
I7
tp556
(I1
I6
I7
tp557
tp558
a((I0
I1
I2
I8
tp559
(I0
I2
I8
tp560
tp561
a((I0
I3
I6
I7
I8
tp562
(I0
I3
I6
I8
tp563
tp564
a((I1
I2
I4
I7
tp565
(I2
I4
I7
tp566
tp567
a((I1
I2
I5
I6
I7
I8
tp568
(I1
I2
I5
I6
I8
tp569
tp570
a((I0
I1
I2
I5
I6
I7
tp571
(I0
I2
I5
I6
I7
tp572
tp573
a((I0
I1
I3
I5
I6
I8
tp574
(I1
I3
I5
I6
I8
tp575
tp576
a((I0
I1
I2
I3
I6
I7
I8
tp577
(I1
I2
I3
I6
I7
I8
tp578
tp579
a((I0
I1
I2
I3
I5
I6
I8
tp580
(I1
I2
I3
I5
I6
I8
tp581
tp582
a((I0
I1
tp583
(I0
tp584
tp585
a((I1
I2
I6
tp586
(I2
I6
tp587
tp588
a((I0
I1
I3
I6
tp589
(I1
I3
I6
tp590
tp591
a((I3
I4
I7
tp592
(I3
I7
tp593
tp594
a((I0
I1
I3
I4
I5
tp595
(I1
I3
I4
I5
tp596
tp597
a((I0
I1
I3
I4
I5
I6
I8
tp598
(I1
I3
I4
I5
I6
I8
tp599
tp600
a((I0
I2
I3
I6
I7
I8
tp601
(I0
I2
I3
I7
I8
tp602
tp603
a((I0
I1
I6
tp604
(I1
I6
tp605
tp606
a((I0
I1
I3
I5
I7
I8
tp607
(I1
I3
I5
I7
I8
tp608
tp609
a((I0
I1
I5
I6
I7
I8
tp610
(I1
I5
I6
I7
I8
tp611
tp612
a((I0
I1
I4
I5
tp613
(I1
I4
I5
tp614
tp615
a((I0
I1
I2
I5
I6
I7
I8
tp616
(I0
I2
I5
I6
I7
I8
tp617
tp618
a((I2
I3
I5
I6
tp619
(I2
I5
I6
tp620
tp621
a((I0
I1
I4
I5
I7
tp622
(I1
I4
I5
I7
tp623
tp624
a((I2
I3
I5
I6
I7
tp625
(I2
I3
I5
I7
tp626
tp627
a((I3
I6
I7
I8
tp628
(I3
I6
I8
tp629
tp630
a((I0
I1
I3
I5
tp631
(I1
I3
I5
tp632
tp633
a((I0
I2
I3
I5
I6
I8
tp634
(I0
I2
I3
I6
I8
tp635
tp636
a((I0
I1
I2
I6
I7
tp637
(I0
I2
I6
I7
tp638
tp639
a((I0
I1
I2
I3
I5
I7
I8
tp640
(I1
I2
I3
I5
I7
I8
tp641
tp642
a((I0
I3
I4
I6
I7
I8
tp643
(I0
I4
I6
I7
I8
tp644
tp645
a((I3
I5
I8
tp646
(I3
I8
tp647
tp648
a((I1
I2
I7
I8
tp649
(I2
I7
I8
tp650
tp651
a((I0
I1
I2
I3
I4
I5
I8
tp652
(I0
I2
I3
I4
I5
I8
tp653
tp654
a((I2
I3
I4
I5
I6
tp655
(I2
I3
I4
I6
tp656
tp657
a((I0
I1
I3
I4
I5
I6
I7
tp658
(I1
I3
I4
I5
I6
I7
tp659
tp660
a((I0
I1
I2
I5
I6
tp661
(I0
I2
I5
I6
tp662
tp663
a((I0
I1
I2
I4
I5
I7
I8
tp664
(I0
I2
I4
I5
I7
I8
tp665
tp666
a((I0
I1
I2
I3
I5
I6
I7
I8
tp667
(I1
I2
I3
I5
I6
I7
I8
tp668
tp669
a((I1
I3
I4
I5
I8
tp670
(I1
I3
I4
I8
tp671
tp672
a((I0
I1
I2
I7
tp673
(I0
I2
I7
tp674
tp675
a((I0
I1
I6
I8
tp676
(I1
I6
I8
tp677
tp678
a((I1
I2
I7
tp679
(I1
I7
tp680
tp681
a((I0
I1
I6
I7
I8
tp682
(I1
I6
I7
I8
tp683
tp684
a((I0
I1
I3
I4
I5
I7
I8
tp685
(I1
I3
I4
I5
I7
I8
tp686
tp687
a((I2
I3
I5
tp688
(I3
I5
tp689
tp690
a((I1
I2
I4
I6
tp691
(I2
I4
I6
tp692
tp693
a((I3
I5
I6
I7
tp694
(I3
I5
I7
tp695
tp696
a((I4
I5
I6
I7
I8
tp697
(I4
I5
I6
I8
tp698
tp699
a((I0
I4
I5
I6
I7
I8
tp700
(I0
I4
I5
I6
I8
tp701
tp702
a((I2
I3
I4
I5
I7
I8
tp703
(I2
I3
I4
I7
I8
tp704
tp705
a((I1
I2
tp706
(I1
tp707
tp708
a((I0
I1
I7
tp709
(I0
I7
tp710
tp711
a((I0
I1
I5
I6
I7
tp712
(I1
I5
I6
I7
tp713
tp714
a((I2
I3
I4
I5
I8
tp715
(I2
I4
I5
I8
tp716
tp717
a((I3
I4
I8
tp718
(I4
I8
tp719
tp720
a((I1
I2
I5
I8
tp721
(I2
I5
I8
tp722
tp723
a((I0
I1
I3
I4
I6
I7
tp724
(I1
I3
I4
I6
I7
tp725
tp726
a((I0
I1
I3
I7
tp727
(I1
I3
I7
tp728
tp729
a((I1
I2
I5
I6
tp730
(I1
I5
I6
tp731
tp732
a((I0
I1
I2
I3
I7
I8
tp733
(I1
I2
I3
I7
I8
tp734
tp735
a((I0
I1
I3
I4
I5
I6
tp736
(I1
I3
I4
I5
I6
tp737
tp738
a((I4
I5
I6
I7
tp739
(I4
I5
I6
tp740
tp741
a((I0
I1
I2
I4
I5
I6
tp742
(I0
I2
I4
I5
I6
tp743
tp744
a((I0
I2
I3
I5
I6
tp745
(I0
I2
I3
I6
tp746
tp747
a((I0
I1
I3
I5
I6
I7
I8
tp748
(I1
I3
I5
I6
I7
I8
tp749
tp750
a((I3
I4
I6
I7
tp751
(I3
I4
I6
tp752
tp753
a((I0
I1
I2
I4
I6
I7
tp754
(I0
I2
I4
I6
I7
tp755
tp756
a.