(lp0
((I0
I1
I2
I4
I5
I6
I8
tp1
(I1
I2
I4
I5
I6
I8
tp2
tp3
a((I0
I1
I5
I6
I8
tp4
(I1
I5
I6
I8
tp5
tp6
a((I0
I1
I4
I8
tp7
(I1
I4
I8
tp8
tp9
a((I0
I1
I3
I6
I7
tp10
(I1
I3
I6
I7
tp11
tp12
a((I0
I1
I4
I6
I7
tp13
(I1
I4
I6
I7
tp14
tp15
a((I0
I1
I4
I6
I7
I8
tp16
(I1
I4
I6
I7
I8
tp17
tp18
a((I0
I1
I2
I3
I6
I8
tp19
(I1
I2
I3
I6
I8
tp20
tp21
a((I0
I2
I5
I6
tp22
(I2
I5
I6
tp23
tp24
a((I0
I1
I8
tp25
(I1
I8
tp26
tp27
a((I0
I1
I2
I3
I5
tp28
(I1
I2
I3
I5
tp29
tp30
a((I0
I2
I3
I7
I8
tp31
(I2
I3
I7
I8
tp32
tp33
a((I0
I4
I6
I7
I8
tp34
(I4
I6
I7
I8
tp35
tp36
a((I0
I3
I4
I5
I7
tp37
(I3
I4
I5
I7
tp38
tp39
a((I0
I1
I3
I6
I8
tp40
(I1
I3
I6
I8
tp41
tp42
a((I0
I4
I5
I7
I8
tp43
(I4
I5
I7
I8
tp44
tp45
a((I0
I1
I3
I5
I6
tp46
(I1
I3
I5
I6
tp47
tp48
a((I0
I3
I5
I7
I8
tp49
(I3
I5
I7
I8
tp50
tp51
a((I0
I2
I4
I6
tp52
(I2
I4
I6
tp53
tp54
a((I0
I1
I2
I3
I5
I8
tp55
(I1
I2
I3
I5
I8
tp56
tp57
a((I0
I6
I7
tp58
(I6
I7
tp59
tp60
a((I0
I4
I7
I8
tp61
(I4
I7
I8
tp62
tp63
a((I0
I1
I2
I6
tp64
(I1
I2
I6
tp65
tp66
a((I0
I5
tp67
(I5
tp68
tp69
a((I0
I1
I3
I7
I8
tp70
(I1
I3
I7
I8
tp71
tp72
a((I0
I1
I2
I3
I7
tp73
(I1
I2
I3
I7
tp74
tp75
a((I0
I2
I7
I8
tp76
(I2
I7
I8
tp77
tp78
a((I0
I1
I2
I3
I4
I8
tp79
(I1
I2
I3
I4
I8
tp80
tp81
a((I0
I2
I8
tp82
(I2
I8
tp83
tp84
a((I0
I1
I4
I6
I8
tp85
(I1
I4
I6
I8
tp86
tp87
a((I0
I1
I2
I5
I8
tp88
(I1
I2
I5
I8
tp89
tp90
a((I0
I3
I5
I6
I7
I8
tp91
(I3
I5
I6
I7
I8
tp92
tp93
a((I0
I2
I3
I5
tp94
(I2
I3
I5
tp95
tp96
a((I0
I5
I6
tp97
(I5
I6
tp98
tp99
a((I0
I2
I3
I6
I7
tp100
(I2
I3
I6
I7
tp101
tp102
a((I0
I4
I5
tp103
(I4
I5
tp104
tp105
a((I0
I3
I4
I6
tp106
(I3
I4
I6
tp107
tp108
a((I0
I4
I6
I8
tp109
(I4
I6
I8
tp110
tp111
a((I0
I1
I3
I4
tp112
(I1
I3
I4
tp113
tp114
a((I0
I1
I3
I4
I5
I6
I7
I8
tp115
(I1
I3
I4
I5
I6
I7
I8
tp116
tp117
a((I0
I1
I2
I3
I4
I7
I8
tp118
(I1
I2
I3
I4
I7
I8
tp119
tp120
a((I0
I5
I6
I7
I8
tp121
(I5
I6
I7
I8
tp122
tp123
a((I0
I3
I5
I6
tp124
(I3
I5
I6
tp125
tp126
a((I0
I1
I4
I7
tp127
(I1
I4
I7
tp128
tp129
a((I0
I1
I2
I3
I4
I6
I7
tp130
(I1
I2
I3
I4
I6
I7
tp131
tp132
a((I0
I1
I4
I5
I8
tp133
(I1
I4
I5
I8
tp134
tp135
a((I0
I1
I2
I4
I8
tp136
(I1
I2
I4
I8
tp137
tp138
a((I0
I1
I2
I4
I6
I7
I8
tp139
(I1
I2
I4
I6
I7
I8
tp140
tp141
a((I0
I2
I3
I4
I5
I6
tp142
(I2
I3
I4
I5
I6
tp143
tp144
a((I0
I5
I6
I8
tp145
(I5
I6
I8
tp146
tp147
a((I0
I3
I8
tp148
(I3
I8
tp149
tp150
a((I0
I3
I4
I5
I6
I7
I8
tp151
(I3
I4
I5
I6
I7
I8
tp152
tp153
a((I0
I3
I4
I7
I8
tp154
(I3
I4
I7
I8
tp155
tp156
a((I0
I2
I5
I8
tp157
(I2
I5
I8
tp158
tp159
a((I0
I2
I4
I5
I6
I8
tp160
(I2
I4
I5
I6
I8
tp161
tp162
a((I0
I1
I2
I4
I5
I6
I7
tp163
(I1
I2
I4
I5
I6
I7
tp164
tp165
a((I0
I2
I4
I5
I7
tp166
(I2
I4
I5
I7
tp167
tp168
a((I0
I2
I6
I7
I8
tp169
(I2
I6
I7
I8
tp170
tp171
a((I0
I1
I2
I4
I7
tp172
(I1
I2
I4
I7
tp173
tp174
a((I0
I3
I6
I8
tp175
(I3
I6
I8
tp176
tp177
a((I0
I1
I3
I4
I5
I7
tp178
(I1
I3
I4
I5
I7
tp179
tp180
a((I0
I2
I4
I7
tp181
(I2
I4
I7
tp182
tp183
a((I0
I2
I3
I5
I6
I7
tp184
(I2
I3
I5
I6
I7
tp185
tp186
a((I0
I5
I7
I8
tp187
(I5
I7
I8
tp188
tp189
a((I0
I1
I2
I3
I4
I7
tp190
(I1
I2
I3
I4
I7
tp191
tp192
a((I0
I7
tp193
(I7
tp194
tp195
a((I0
I5
I7
tp196
(I5
I7
tp197
tp198
a((I0
I1
I2
I5
tp199
(I1
I2
I5
tp200
tp201
a((I0
I1
I2
I3
I4
I6
I8
tp202
(I1
I2
I3
I4
I6
I8
tp203
tp204
a((I0
I2
I3
I5
I6
I7
I8
tp205
(I2
I3
I5
I6
I7
I8
tp206
tp207
a((I0
I2
I3
tp208
(I2
I3
tp209
tp210
a((I0
I2
I3
I4
I5
I7
I8
tp211
(I2
I3
I4
I5
I7
I8
tp212
tp213
a((I0
I1
I3
I4
I6
tp214
(I1
I3
I4
I6
tp215
tp216
a((I0
I4
I5
I6
I7
tp217
(I4
I5
I6
I7
tp218
tp219
a((I0
I1
I2
I3
I6
I7
tp220
(I1
I2
I3
I6
I7
tp221
tp222
a((I0
I2
I3
I4
tp223
(I2
I3
I4
tp224
tp225
a((I0
I2
I3
I8
tp226
(I2
I3
I8
tp227
tp228
a((I0
I1
I7
I8
tp229
(I1
I7
I8
tp230
tp231
a((I0
I4
I6
I7
tp232
(I4
I6
I7
tp233
tp234
a((I0
I3
I4
I5
tp235
(I3
I4
I5
tp236
tp237
a((I0
I1
I2
tp238
(I1
I2
tp239
tp240
a((I0
I1
I2
I4
I5
I8
tp241
(I1
I2
I4
I5
I8
tp242
tp243
a((I0
I1
I2
I3
I4
I5
I7
I8
tp244
(I1
I2
I3
I4
I5
I7
I8
tp245
tp246
a((I0
I2
I3
I4
I6
tp247
(I2
I3
I4
I6
tp248
tp249
a((I0
I3
I5
I7
tp250
(I3
I5
I7
tp251
tp252
a((I0
I1
I4
I6
tp253
(I1
I4
I6
tp254
tp255
a((I0
I1
I2
I3
I4
I5
I6
I7
tp256
(I1
I2
I3
I4
I5
I6
I7
tp257
tp258
a((I0
I5
I8
tp259
(I5
I8
tp260
tp261
a((I0
I5
I6
I7
tp262
(I5
I6
I7
tp263
tp264
a((I0
I1
I2
I5
I7
tp265
(I1
I2
I5
I7
tp266
tp267
a((I0
I2
tp268
(I2
tp269
tp270
a((I0
I1
I5
I8
tp271
(I1
I5
I8
tp272
tp273
a((I0
I1
I2
I4
I6
I8
tp274
(I1
I2
I4
I6
I8
tp275
tp276
a((I0
I1
I5
I6
tp277
(I1
I5
I6
tp278
tp279
a((I0
I1
I4
I5
I6
tp280
(I1
I4
I5
I6
tp281
tp282
a((I0
I3
I6
I7
tp283
(I3
I6
I7
tp284
tp285
a((I0
I1
I4
I5
I7
I8
tp286
(I1
I4
I5
I7
I8
tp287
tp288
a((I0
I2
I4
I8
tp289
(I2
I4
I8
tp290
tp291
a((I0
I2
I3
I4
I5
I6
I8
tp292
(I2
I3
I4
I5
I6
I8
tp293
tp294
a((I0
I1
I2
I4
tp295
(I1
I2
I4
tp296
tp297
a((I0
I1
I2
I4
I7
I8
tp298
(I1
I2
I4
I7
I8
tp299
tp300
a((I0
I1
I2
I3
I8
tp301
(I1
I2
I3
I8
tp302
tp303
a((I0
I4
I7
tp304
(I4
I7
tp305
tp306
a((I0
I6
I8
tp307
(I6
I8
tp308
tp309
a((I0
I1
I3
tp310
(I1
I3
tp311
tp312
a((I0
I2
I3
I5
I7
tp313
(I2
I3
I5
I7
tp314
tp315
a((I0
I2
I3
I7
tp316
(I2
I3
I7
tp317
tp318
a((I0
I1
I3
I4
I5
I8
tp319
(I1
I3
I4
I5
I8
tp320
tp321
a((I0
I1
I3
I6
I7
I8
tp322
(I1
I3
I6
I7
I8
tp323
tp324
a((I0
I2
I4
I5
I8
tp325
(I2
I4
I5
I8
tp326
tp327
a((I0
I1
I4
I5
I6
I7
I8
tp328
(I1
I4
I5
I6
I7
I8
tp329
tp330
a((I0
I2
I3
I4
I6
I7
tp331
(I2
I3
I4
I6
I7
tp332
tp333
a((I0
I3
I6
tp334
(I3
I6
tp335
tp336
a((I0
I2
I5
I7
I8
tp337
(I2
I5
I7
I8
tp338
tp339
a((I0
I2
I6
I8
tp340
(I2
I6
I8
tp341
tp342
a((I0
I2
I3
I5
I8
tp343
(I2
I3
I5
I8
tp344
tp345
a((I0
I1
I2
I3
I4
I6
tp346
(I1
I2
I3
I4
I6
tp347
tp348
a((I0
I2
I4
I5
I7
I8
tp349
(I2
I4
I5
I7
I8
tp350
tp351
a((I0
I1
I5
I7
I8
tp352
(I1
I5
I7
I8
tp353
tp354
a((I0
I1
I3
I4
I8
tp355
(I1
I3
I4
I8
tp356
tp357
a((I0
I1
I2
I3
I5
I6
tp358
(I1
I2
I3
I5
I6
tp359
tp360
a((I0
I1
I3
I4
I7
I8
tp361
(I1
I3
I4
I7
I8
tp362
tp363
a((I0
I1
I3
I5
I6
I7
tp364
(I1
I3
I5
I6
I7
tp365
tp366
a((I0
I3
I4
I5
I8
tp367
(I3
I4
I5
I8
tp368
tp369
a((I0
I4
I5
I8
tp370
(I4
I5
I8
tp371
tp372
a((I0
I7
I8
tp373
(I7
I8
tp374
tp375
a((I0
I3
I5
I8
tp376
(I3
I5
I8
tp377
tp378
a((I0
I2
I5
tp379
(I2
I5
tp380
tp381
a((I0
I4
tp382
(I4
tp383
tp384
a((I0
I2
I5
I6
I8
tp385
(I2
I5
I6
I8
tp386
tp387
a((I0
I1
I5
I7
tp388
(I1
I5
I7
tp389
tp390
a((I0
I2
I3
I4
I6
I7
I8
tp391
(I2
I3
I4
I6
I7
I8
tp392
tp393
a((I0
I1
I3
I5
I8
tp394
(I1
I3
I5
I8
tp395
tp396
a((I0
I4
I6
tp397
(I4
I6
tp398
tp399
a((I0
I3
I4
I5
I6
I8
tp400
(I3
I4
I5
I6
I8
tp401
tp402
a((I0
I2
I3
I4
I5
I8
tp403
(I2
I3
I4
I5
I8
tp404
tp405
a((I0
I2
I4
I5
tp406
(I2
I4
I5
tp407
tp408
a((I0
I1
I2
I3
I4
tp409
(I1
I2
I3
I4
tp410
tp411
a((I0
I1
I4
tp412
(I1
I4
tp413
tp414
a((I0
I3
I5
I6
I8
tp415
(I3
I5
I6
I8
tp416
tp417
a((I0
I2
I5
I6
I7
tp418
(I2
I5
I6
I7
tp419
tp420
a((I0
I3
I4
I5
I6
tp421
(I3
I4
I5
I6
tp422
tp423
a((I0
I1
I2
I3
I5
I6
I7
tp424
(I1
I2
I3
I5
I6
I7
tp425
tp426
a((I0
I1
I3
I5
I7
tp427
(I1
I3
I5
I7
tp428
tp429
a((I0
I1
I2
I5
I7
I8
tp430
(I1
I2
I5
I7
I8
tp431
tp432
a((I0
I1
I2
I3
tp433
(I1
I2
I3
tp434
tp435
a((I0
I3
I7
I8
tp436
(I3
I7
I8
tp437
tp438
a((I0
I2
I3
I4
I5
I6
I7
tp439
(I2
I3
I4
I5
I6
I7
tp440
tp441
a((I0
I3
I4
I5
I6
I7
tp442
(I3
I4
I5
I6
I7
tp443
tp444
a((I0
I8
tp445
(I8
tp446
tp447
a((I0
I3
I7
tp448
(I3
I7
tp449
tp450
a((I0
I2
I3
I4
I6
I8
tp451
(I2
I3
I4
I6
I8
tp452
tp453
a((I0
I2
I3
I6
tp454
(I2
I3
I6
tp455
tp456
a((I0
I1
I4
I7
I8
tp457
(I1
I4
I7
I8
tp458
tp459
a((I0
I2
I4
I6
I7
tp460
(I2
I4
I6
I7
tp461
tp462
a((I0
I1
I2
I5
I6
I8
tp463
(I1
I2
I5
I6
I8
tp464
tp465
a((I0
I1
I4
I5
I6
I7
tp466
(I1
I4
I5
I6
I7
tp467
tp468
a((I0
I2
I4
I6
I7
I8
tp469
(I2
I4
I6
I7
I8
tp470
tp471
a((I0
I1
I2
I3
I6
tp472
(I1
I2
I3
I6
tp473
tp474
a((I0
I2
I4
tp475
(I2
I4
tp476
tp477
a((I0
I4
I5
I6
I8
tp478
(I4
I5
I6
I8
tp479
tp480
a((I0
I1
I2
I3
I4
I5
I6
tp481
(I1
I2
I3
I4
I5
I6
tp482
tp483
a((I0
I2
I6
I7
tp484
(I2
I6
I7
tp485
tp486
a((I0
I4
I8
tp487
(I4
I8
tp488
tp489
a((I0
I2
I3
I6
I8
tp490
(I2
I3
I6
I8
tp491
tp492
a((I0
I1
I2
I7
I8
tp493
(I1
I2
I7
I8
tp494
tp495
a((I0
I4
I5
I7
tp496
(I4
I5
I7
tp497
tp498
a((I0
I2
I4
I5
I6
tp499
(I2
I4
I5
I6
tp500
tp501
a((I0
I6
tp502
(I6
tp503
tp504
a((I0
I1
I2
I4
I6
tp505
(I1
I2
I4
I6
tp506
tp507
a((I0
I3
I5
I6
I7
tp508
(I3
I5
I6
I7
tp509
tp510
a((I0
I1
I2
I3
I4
I6
I7
I8
tp511
(I1
I2
I3
I4
I6
I7
I8
tp512
tp513
a((I0
I1
I4
I5
I6
I8
tp514
(I1
I4
I5
I6
I8
tp515
tp516
a((I0
I3
I4
I6
I8
tp517
(I3
I4
I6
I8
tp518
tp519
a((I0
I1
I5
tp520
(I1
I5
tp521
tp522
a((I0
I1
I2
I4
I5
I6
I7
I8
tp523
(I1
I2
I4
I5
I6
I7
I8
tp524
tp525
a((I0
I1
I3
I4
I6
I7
I8
tp526
(I1
I3
I4
I6
I7
I8
tp527
tp528
a((I0
I1
I2
I3
I4
I5
I7
tp529
(I1
I2
I3
I4
I5
I7
tp530
tp531
a((I0
I2
I3
I4
I5
I7
tp532
(I2
I3
I4
I5
I7
tp533
tp534
a((I0
I3
I4
I5
I7
I8
tp535
(I3
I4
I5
I7
I8
tp536
tp537
a((I0
I3
I4
I6
I7
tp538
(I3
I4
I6
I7
tp539
tp540
a((I0
I1
I2
I6
I7
I8
tp541
(I1
I2
I6
I7
I8
tp542
tp543
a((I0
I1
I2
I3
I4
I5
tp544
(I1
I2
I3
I4
I5
tp545
tp546
a((I0
I1
I2
I6
I8
tp547
(I1
I2
I6
I8
tp548
tp549
a((I0
I1
I2
I4
I5
tp550
(I1
I2
I4
I5
tp551
tp552
a((I0
I1
I2
I3
I5
I7
tp553
(I1
I2
I3
I5
I7
tp554
tp555
a((I0
I1
I3
I4
I6
I8
tp556
(I1
I3
I4
I6
I8
tp557
tp558
a((I0
I3
I4
tp559
(I3
I4
tp560
tp561
a((I0
I6
I7
I8
tp562
(I6
I7
I8
tp563
tp564
a((I0
I1
I3
I4
I7
tp565
(I1
I3
I4
I7
tp566
tp567
a((I0
I1
I2
I4
I5
I7
tp568
(I1
I2
I4
I5
I7
tp569
tp570
a((I0
I1
I6
I7
tp571
(I1
I6
I7
tp572
tp573
a((I0
I1
I2
I8
tp574
(I1
I2
I8
tp575
tp576
a((I0
I3
I6
I7
I8
tp577
(I3
I6
I7
I8
tp578
tp579
a((I0
I1
I2
I3
I4
I5
I6
I8
tp580
(I1
I2
I3
I4
I5
I6
I8
tp581
tp582
a((I0
I1
I2
I5
I6
I7
tp583
(I1
I2
I5
I6
I7
tp584
tp585
a((I0
I2
I7
tp586
(I2
I7
tp587
tp588
a((I0
I1
I3
I5
I6
I8
tp589
(I1
I3
I5
I6
I8
tp590
tp591
a((I0
I1
I2
I3
I6
I7
I8
tp592
(I1
I2
I3
I6
I7
I8
tp593
tp594
a((I0
I1
I2
I3
I5
I6
I8
tp595
(I1
I2
I3
I5
I6
I8
tp596
tp597
a((I0
I2
I4
I5
I6
I7
tp598
(I2
I4
I5
I6
I7
tp599
tp600
a((I0
I1
tp601
(I1
tp602
tp603
a((I0
tp604
(ttp605
a((I0
I1
I3
I6
tp606
(I1
I3
I6
tp607
tp608
a((I0
I1
I3
I8
tp609
(I1
I3
I8
tp610
tp611
a((I0
I1
I3
I4
I5
tp612
(I1
I3
I4
I5
tp613
tp614
a((I0
I1
I3
I4
I5
I6
I8
tp615
(I1
I3
I4
I5
I6
I8
tp616
tp617
a((I0
I2
I3
I5
I7
I8
tp618
(I2
I3
I5
I7
I8
tp619
tp620
a((I0
I2
I3
I6
I7
I8
tp621
(I2
I3
I6
I7
I8
tp622
tp623
a((I0
I1
I6
tp624
(I1
I6
tp625
tp626
a((I0
I1
I3
I5
I7
I8
tp627
(I1
I3
I5
I7
I8
tp628
tp629
a((I0
I3
I4
I7
tp630
(I3
I4
I7
tp631
tp632
a((I0
I1
I5
I6
I7
I8
tp633
(I1
I5
I6
I7
I8
tp634
tp635
a((I0
I1
I4
I5
tp636
(I1
I4
I5
tp637
tp638
a((I0
I4
I5
I6
tp639
(I4
I5
I6
tp640
tp641
a((I0
I1
I2
I5
I6
I7
I8
tp642
(I1
I2
I5
I6
I7
I8
tp643
tp644
a((I0
I2
I4
I6
I8
tp645
(I2
I4
I6
I8
tp646
tp647
a((I0
I2
I4
I5
I6
I7
I8
tp648
(I2
I4
I5
I6
I7
I8
tp649
tp650
a((I0
I1
I4
I5
I7
tp651
(I1
I4
I5
I7
tp652
tp653
a((I0
I2
I5
I7
tp654
(I2
I5
I7
tp655
tp656
a((I0
I1
I3
I5
tp657
(I1
I3
I5
tp658
tp659
a((I0
I3
I5
tp660
(I3
I5
tp661
tp662
a((I0
I2
I3
I5
I6
I8
tp663
(I2
I3
I5
I6
I8
tp664
tp665
a((I0
I3
I4
I8
tp666
(I3
I4
I8
tp667
tp668
a((I0
I2
I3
I4
I7
tp669
(I2
I3
I4
I7
tp670
tp671
a((I0
I2
I5
I6
I7
I8
tp672
(I2
I5
I6
I7
I8
tp673
tp674
a((I0
I1
I2
I6
I7
tp675
(I1
I2
I6
I7
tp676
tp677
a((I0
I1
I2
I3
I5
I7
I8
tp678
(I1
I2
I3
I5
I7
I8
tp679
tp680
a((I0
I3
I4
I6
I7
I8
tp681
(I3
I4
I6
I7
I8
tp682
tp683
a((I0
I1
I2
I3
I4
I5
I8
tp684
(I1
I2
I3
I4
I5
I8
tp685
tp686
a((I0
I1
I3
I4
I5
I6
I7
tp687
(I1
I3
I4
I5
I6
I7
tp688
tp689
a((I0
I1
I2
I5
I6
tp690
(I1
I2
I5
I6
tp691
tp692
a((I0
I1
I2
I4
I5
I7
I8
tp693
(I1
I2
I4
I5
I7
I8
tp694
tp695
a((I0
I2
I6
tp696
(I2
I6
tp697
tp698
a((I0
I1
I2
I3
I5
I6
I7
I8
tp699
(I1
I2
I3
I5
I6
I7
I8
tp700
tp701
a((I0
I2
I4
I7
I8
tp702
(I2
I4
I7
I8
tp703
tp704
a((I0
I1
I2
I7
tp705
(I1
I2
I7
tp706
tp707
a((I0
I1
I6
I8
tp708
(I1
I6
I8
tp709
tp710
a((I0
I1
I6
I7
I8
tp711
(I1
I6
I7
I8
tp712
tp713
a((I0
I1
I3
I4
I5
I7
I8
tp714
(I1
I3
I4
I5
I7
I8
tp715
tp716
a((I0
I2
I3
I4
I7
I8
tp717
(I2
I3
I4
I7
I8
tp718
tp719
a((I0
I2
I3
I4
I5
tp720
(I2
I3
I4
I5
tp721
tp722
a((I0
I4
I5
I6
I7
I8
tp723
(I4
I5
I6
I7
I8
tp724
tp725
a((I0
I3
tp726
(I3
tp727
tp728
a((I0
I2
I3
I4
I5
I6
I7
I8
tp729
(I2
I3
I4
I5
I6
I7
I8
tp730
tp731
a((I0
I1
I7
tp732
(I1
I7
tp733
tp734
a((I0
I1
I5
I6
I7
tp735
(I1
I5
I6
I7
tp736
tp737
a((I0
I1
I3
I4
I6
I7
tp738
(I1
I3
I4
I6
I7
tp739
tp740
a((I0
I1
I3
I7
tp741
(I1
I3
I7
tp742
tp743
a((I0
I2
I3
I4
I8
tp744
(I2
I3
I4
I8
tp745
tp746
a((I0
I1
I2
I3
I7
I8
tp747
(I1
I2
I3
I7
I8
tp748
tp749
a((I0
I1
I3
I4
I5
I6
tp750
(I1
I3
I4
I5
I6
tp751
tp752
a((I0
I1
I2
I4
I5
I6
tp753
(I1
I2
I4
I5
I6
tp754
tp755
a((I0
I2
I3
I5
I6
tp756
(I2
I3
I5
I6
tp757
tp758
a((I0
I1
I3
I5
I6
I7
I8
tp759
(I1
I3
I5
I6
I7
I8
tp760
tp761
a((I0
I1
I2
I4
I6
I7
tp762
(I1
I2
I4
I6
I7
tp763
tp764
a.