(lp0
((I0
I1
I2
I4
I5
I6
I8
tp1
(I0
I1
I2
I4
I5
I8
tp2
tp3
a((I0
I1
I5
I6
I8
tp4
(I0
I1
I5
I6
tp5
tp6
a((I0
I1
I4
I8
tp7
(I0
I1
I4
tp8
tp9
a((I0
I1
I4
I6
I7
I8
tp10
(I0
I1
I4
I6
I7
tp11
tp12
a((I0
I1
I2
I3
I6
I8
tp13
(I0
I1
I2
I3
I6
tp14
tp15
a((I1
I5
I6
I8
tp16
(I1
I5
I6
tp17
tp18
a((I0
I2
I5
I6
tp19
(I2
I5
I6
tp20
tp21
a((I0
I1
I8
tp22
(I0
I1
tp23
tp24
a((I0
I1
I2
I3
I5
tp25
(I1
I2
I3
I5
tp26
tp27
a((I0
I2
I3
I7
I8
tp28
(I2
I3
I7
I8
tp29
tp30
a((I0
I4
I6
I7
I8
tp31
(I4
I6
I7
I8
tp32
tp33
a((I0
I1
I3
I6
I8
tp34
(I0
I1
I3
I6
tp35
tp36
a((I0
I4
I5
I7
I8
tp37
(I4
I5
I7
I8
tp38
tp39
a((I1
I5
I7
tp40
(I1
I7
tp41
tp42
a((I3
I7
I8
tp43
(I3
I8
tp44
tp45
a((I1
I4
I5
I6
tp46
(I1
I4
I5
tp47
tp48
a((I0
I3
I5
I7
I8
tp49
(I3
I5
I7
I8
tp50
tp51
a((I0
I2
I4
I6
tp52
(I2
I4
I6
tp53
tp54
a((I0
I1
I2
I3
I5
I8
tp55
(I1
I2
I3
I5
I8
tp56
tp57
a((I1
I4
I5
I6
I7
I8
tp58
(I1
I4
I5
I7
I8
tp59
tp60
a((I0
I6
I7
tp61
(I6
I7
tp62
tp63
a((I0
I4
I7
I8
tp64
(I4
I7
I8
tp65
tp66
a((I0
I1
I2
I6
tp67
(I1
I2
I6
tp68
tp69
a((I1
I3
I4
I5
I6
I7
tp70
(I1
I3
I4
I6
I7
tp71
tp72
a((I2
I4
I5
I6
I8
tp73
(I4
I5
I6
I8
tp74
tp75
a((I0
I5
tp76
(I5
tp77
tp78
a((I1
I2
I4
I5
I6
I8
tp79
(I1
I2
I4
I5
I8
tp80
tp81
a((I0
I1
I3
I7
I8
tp82
(I0
I1
I7
I8
tp83
tp84
a((I0
I1
I2
I3
I7
tp85
(I1
I2
I3
I7
tp86
tp87
a((I2
I7
tp88
(I7
tp89
tp90
a((I0
I2
I7
I8
tp91
(I2
I7
I8
tp92
tp93
a((I0
I1
I2
I3
I4
I8
tp94
(I0
I1
I2
I3
I4
tp95
tp96
a((I0
I2
I8
tp97
(I2
I8
tp98
tp99
a((I0
I1
I4
I6
I8
tp100
(I0
I1
I4
I6
tp101
tp102
a((I0
I1
I2
I5
I8
tp103
(I1
I2
I5
I8
tp104
tp105
a((I0
I3
I5
I6
I7
I8
tp106
(I0
I3
I5
I6
I8
tp107
tp108
a((I0
I2
I3
I5
tp109
(I2
I3
I5
tp110
tp111
a((I1
I3
I4
I6
I8
tp112
(I1
I3
I4
I6
tp113
tp114
a((I0
I5
I6
tp115
(I5
I6
tp116
tp117
a((I0
I2
I3
I6
I7
tp118
(I2
I3
I6
I7
tp119
tp120
a((I0
I4
I5
tp121
(I4
I5
tp122
tp123
a((I1
I4
I7
I8
tp124
(I1
I4
I7
tp125
tp126
a((I0
I3
I4
I6
tp127
(I3
I4
I6
tp128
tp129
a((I0
I4
I6
I8
tp130
(I4
I6
I8
tp131
tp132
a((I1
I2
I5
I7
tp133
(I1
I2
I7
tp134
tp135
a((I0
I1
I2
I3
I4
I7
I8
tp136
(I0
I1
I2
I3
I4
I7
tp137
tp138
a((I1
I2
I3
I4
I7
I8
tp139
(I1
I2
I3
I4
I7
tp140
tp141
a((I0
I5
I6
I7
I8
tp142
(I5
I6
I7
I8
tp143
tp144
a((I1
I3
I6
I7
I8
tp145
(I1
I3
I6
I7
tp146
tp147
a((I0
I3
I5
I6
tp148
(I3
I5
I6
tp149
tp150
a((I0
I1
I4
I5
I8
tp151
(I0
I1
I4
I5
tp152
tp153
a((I0
I1
I2
I4
I8
tp154
(I0
I1
I2
I4
tp155
tp156
a((I0
I1
I2
I4
I6
I7
I8
tp157
(I1
I2
I4
I6
I7
I8
tp158
tp159
a((I1
I2
I3
I4
I6
I7
I8
tp160
(I1
I3
I4
I6
I7
I8
tp161
tp162
a((I0
I2
I3
I4
I5
I6
tp163
(I2
I3
I4
I5
I6
tp164
tp165
a((I0
I5
I6
I8
tp166
(I5
I6
I8
tp167
tp168
a((I0
I3
I4
I5
I6
I7
I8
tp169
(I3
I4
I5
I6
I7
I8
tp170
tp171
a((I0
I3
I4
I7
I8
tp172
(I3
I4
I7
I8
tp173
tp174
a((I0
I2
I5
I8
tp175
(I2
I5
I8
tp176
tp177
a((I0
I2
I4
I5
I6
I8
tp178
(I0
I4
I5
I6
I8
tp179
tp180
a((I0
I1
I2
I4
I5
I6
I7
tp181
(I0
I1
I2
I4
I6
I7
tp182
tp183
a((I0
I2
I4
I5
I7
tp184
(I2
I4
I5
I7
tp185
tp186
a((I0
I2
I6
I7
I8
tp187
(I2
I6
I7
I8
tp188
tp189
a((I0
I1
I2
I4
I7
tp190
(I1
I2
I4
I7
tp191
tp192
a((I0
I3
I6
I8
tp193
(I3
I6
I8
tp194
tp195
a((I0
I1
I3
I4
I5
I7
tp196
(I0
I1
I3
I4
I7
tp197
tp198
a((I1
I5
I6
I7
I8
tp199
(I1
I6
I7
I8
tp200
tp201
a((I0
I2
I4
I7
tp202
(I2
I4
I7
tp203
tp204
a((I0
I2
I3
I5
I6
I7
tp205
(I2
I3
I5
I6
I7
tp206
tp207
a((I0
I5
I7
I8
tp208
(I5
I7
I8
tp209
tp210
a((I0
I5
I7
tp211
(I5
I7
tp212
tp213
a((I0
I1
I2
I5
tp214
(I1
I2
I5
tp215
tp216
a((I0
I1
I2
I3
I4
I6
I8
tp217
(I0
I1
I2
I3
I4
I6
tp218
tp219
a((I0
I2
I3
I5
I6
I7
I8
tp220
(I2
I3
I5
I6
I7
I8
tp221
tp222
a((I0
I2
I3
tp223
(I2
I3
tp224
tp225
a((I1
I3
I4
I5
I6
tp226
(I1
I3
I4
I5
tp227
tp228
a((I3
I5
I6
I7
I8
tp229
(I3
I5
I6
I8
tp230
tp231
a((I1
I2
I3
I4
I8
tp232
(I1
I2
I3
I4
tp233
tp234
a((I2
I3
I4
I5
I6
I7
tp235
(I2
I3
I4
I6
I7
tp236
tp237
a((I0
I2
I3
I4
I5
I7
I8
tp238
(I2
I3
I4
I5
I7
I8
tp239
tp240
a((I0
I4
I5
I6
I7
tp241
(I4
I5
I6
I7
tp242
tp243
a((I0
I1
I2
I3
I6
I7
tp244
(I1
I2
I3
I6
I7
tp245
tp246
a((I0
I2
I3
I4
tp247
(I2
I3
I4
tp248
tp249
a((I1
I2
I4
I5
I6
I7
tp250
(I1
I2
I4
I6
I7
tp251
tp252
a((I0
I2
I3
I8
tp253
(I2
I3
I8
tp254
tp255
a((I0
I4
I6
I7
tp256
(I4
I6
I7
tp257
tp258
a((I1
I3
I5
tp259
(I1
I5
tp260
tp261
a((I0
I3
I4
I5
tp262
(I3
I4
I5
tp263
tp264
a((I0
I1
I2
tp265
(I1
I2
tp266
tp267
a((I0
I1
I2
I3
I4
I5
I7
I8
tp268
(I1
I2
I3
I4
I5
I7
I8
tp269
tp270
a((I3
I4
I5
I6
I8
tp271
(I3
I4
I5
I6
tp272
tp273
a((I1
I6
I8
tp274
(I1
I6
tp275
tp276
a((I1
I5
I7
I8
tp277
(I1
I5
I8
tp278
tp279
a((I0
I2
I3
I4
I6
tp280
(I2
I3
I4
I6
tp281
tp282
a((I0
I3
I5
I7
tp283
(I3
I5
I7
tp284
tp285
a((I0
I1
I2
I3
I4
I5
I6
I7
tp286
(I0
I1
I2
I3
I4
I6
I7
tp287
tp288
a((I0
I5
I8
tp289
(I5
I8
tp290
tp291
a((I0
I5
I6
I7
tp292
(I5
I6
I7
tp293
tp294
a((I2
tp295
(ttp296
a((I2
I3
I4
I5
I7
tp297
(I3
I4
I5
I7
tp298
tp299
a((I0
I1
I2
I5
I7
tp300
(I0
I1
I2
I7
tp301
tp302
a((I1
I2
I3
I4
I5
I6
I7
tp303
(I1
I2
I3
I4
I6
I7
tp304
tp305
a((I0
I2
tp306
(I0
tp307
tp308
a((I0
I1
I2
I4
I6
I8
tp309
(I1
I2
I4
I6
I8
tp310
tp311
a((I1
I2
I3
I4
I6
I8
tp312
(I1
I2
I3
I4
I6
tp313
tp314
a((I0
I3
I6
I7
tp315
(I3
I6
I7
tp316
tp317
a((I0
I1
I4
I5
I7
I8
tp318
(I0
I1
I4
I5
I7
tp319
tp320
a((I1
I3
I7
I8
tp321
(I1
I7
I8
tp322
tp323
a((I0
I2
I4
I8
tp324
(I2
I4
I8
tp325
tp326
a((I0
I2
I3
I4
I5
I6
I8
tp327
(I2
I3
I4
I5
I6
I8
tp328
tp329
a((I0
I1
I2
I4
I7
I8
tp330
(I1
I2
I4
I7
I8
tp331
tp332
a((I0
I1
I2
I3
I8
tp333
(I1
I2
I3
I8
tp334
tp335
a((I0
I4
I7
tp336
(I4
I7
tp337
tp338
a((I1
I3
I4
I5
I6
I8
tp339
(I1
I3
I5
I6
I8
tp340
tp341
a((I0
I6
I8
tp342
(I6
I8
tp343
tp344
a((I1
I4
I6
I8
tp345
(I1
I4
I6
tp346
tp347
a((I1
I4
I5
I6
I7
tp348
(I1
I4
I5
I7
tp349
tp350
a((I0
I2
I3
I5
I7
tp351
(I2
I3
I5
I7
tp352
tp353
a((I0
I2
I3
I7
tp354
(I2
I3
I7
tp355
tp356
a((I0
I1
I3
I4
I5
I8
tp357
(I0
I1
I3
I4
I5
tp358
tp359
a((I0
I2
I4
I5
I8
tp360
(I2
I4
I5
I8
tp361
tp362
a((I0
I1
I4
I5
I6
I7
I8
tp363
(I0
I1
I4
I5
I6
I7
tp364
tp365
a((I0
I3
I6
tp366
(I3
I6
tp367
tp368
a((I0
I2
I5
I7
I8
tp369
(I2
I5
I7
I8
tp370
tp371
a((I0
I2
I6
I8
tp372
(I2
I6
I8
tp373
tp374
a((I0
I2
I3
I5
I8
tp375
(I2
I3
I5
I8
tp376
tp377
a((I1
I4
I8
tp378
(I1
I4
tp379
tp380
a((I0
I2
I4
I5
I7
I8
tp381
(I2
I4
I5
I7
I8
tp382
tp383
a((I1
I8
tp384
(I1
tp385
tp386
a((I0
I1
I3
I4
I8
tp387
(I0
I1
I3
I4
tp388
tp389
a((I0
I1
I2
I3
I5
I6
tp390
(I1
I2
I3
I5
I6
tp391
tp392
a((I0
I1
I3
I5
I6
I7
tp393
(I0
I1
I3
I6
I7
tp394
tp395
a((I0
I3
I4
I5
I8
tp396
(I3
I4
I5
I8
tp397
tp398
a((I0
I4
I5
I8
tp399
(I4
I5
I8
tp400
tp401
a((I0
I7
I8
tp402
(I7
I8
tp403
tp404
a((I0
I3
I5
I8
tp405
(I3
I5
I8
tp406
tp407
a((I0
I2
I5
tp408
(I2
I5
tp409
tp410
a((I0
I2
I5
I6
I8
tp411
(I2
I5
I6
I8
tp412
tp413
a((I1
I5
I6
I7
tp414
(I1
I6
I7
tp415
tp416
a((I0
I1
I5
I7
tp417
(I0
I1
I7
tp418
tp419
a((I0
I2
I3
I4
I6
I7
I8
tp420
(I2
I3
I4
I6
I7
I8
tp421
tp422
a((I0
I1
I3
I5
I8
tp423
(I0
I1
I5
I8
tp424
tp425
a((I0
I4
I6
tp426
(I4
I6
tp427
tp428
a((I0
I3
I4
I5
I6
I8
tp429
(I0
I3
I4
I5
I6
tp430
tp431
a((I0
I2
I3
I4
I5
I8
tp432
(I2
I3
I4
I5
I8
tp433
tp434
a((I0
I2
I4
I5
tp435
(I2
I4
I5
tp436
tp437
a((I0
I2
I5
I6
I7
tp438
(I2
I5
I6
I7
tp439
tp440
a((I0
I1
I2
I3
I5
I6
I7
tp441
(I1
I2
I3
I5
I6
I7
tp442
tp443
a((I0
I1
I3
I5
I7
tp444
(I0
I1
I3
I7
tp445
tp446
a((I0
I1
I2
I5
I7
I8
tp447
(I1
I2
I5
I7
I8
tp448
tp449
a((I0
I1
I2
I3
tp450
(I1
I2
I3
tp451
tp452
a((I1
I2
I4
I8
tp453
(I1
I2
I4
tp454
tp455
a((I0
I3
I7
I8
tp456
(I0
I3
I8
tp457
tp458
a((I0
I2
I3
I4
I5
I6
I7
tp459
(I0
I2
I3
I4
I6
I7
tp460
tp461
a((I0
I3
I4
I5
I6
I7
tp462
(I3
I4
I5
I6
I7
tp463
tp464
a((I0
I8
tp465
(I8
tp466
tp467
a((I1
I3
I4
I7
I8
tp468
(I1
I3
I4
I7
tp469
tp470
a((I0
I3
I7
tp471
(I3
I7
tp472
tp473
a((I0
I2
I3
I4
I6
I8
tp474
(I2
I3
I4
I6
I8
tp475
tp476
a((I0
I2
I3
I6
tp477
(I2
I3
I6
tp478
tp479
a((I0
I1
I4
I7
I8
tp480
(I0
I1
I4
I7
tp481
tp482
a((I0
I2
I4
I6
I7
tp483
(I2
I4
I6
I7
tp484
tp485
a((I0
I1
I2
I5
I6
I8
tp486
(I1
I2
I5
I6
I8
tp487
tp488
a((I0
I2
I4
I6
I7
I8
tp489
(I2
I4
I6
I7
I8
tp490
tp491
a((I0
I2
I4
tp492
(I0
I4
tp493
tp494
a((I0
I1
I2
I3
I4
I5
I6
tp495
(I1
I2
I3
I4
I5
I6
tp496
tp497
a((I0
I2
I6
I7
tp498
(I2
I6
I7
tp499
tp500
a((I0
I4
I8
tp501
(I4
I8
tp502
tp503
a((I1
I3
I5
I7
tp504
(I1
I3
I7
tp505
tp506
a((I1
I4
I5
I6
I8
tp507
(I1
I4
I5
I8
tp508
tp509
a((I0
I2
I3
I6
I8
tp510
(I2
I3
I6
I8
tp511
tp512
a((I0
I1
I2
I7
I8
tp513
(I1
I2
I7
I8
tp514
tp515
a((I0
I4
I5
I7
tp516
(I4
I5
I7
tp517
tp518
a((I0
I2
I4
I5
I6
tp519
(I2
I4
I5
I6
tp520
tp521
a((I0
I6
tp522
(I6
tp523
tp524
a((I0
I1
I2
I4
I6
tp525
(I1
I2
I4
I6
tp526
tp527
a((I0
I3
I5
I6
I7
tp528
(I3
I5
I6
I7
tp529
tp530
a((I0
I1
I2
I3
I4
I6
I7
I8
tp531
(I0
I1
I3
I4
I6
I7
I8
tp532
tp533
a((I2
I4
tp534
(I4
tp535
tp536
a((I0
I1
I4
I5
I6
I8
tp537
(I0
I1
I4
I5
I6
tp538
tp539
a((I0
I3
I4
I6
I8
tp540
(I3
I4
I6
I8
tp541
tp542
a((I1
I3
I5
I6
I7
tp543
(I1
I3
I5
I6
tp544
tp545
a((I0
I1
I2
I4
I5
I6
I7
I8
tp546
(I1
I2
I4
I5
I6
I7
I8
tp547
tp548
a((I0
I1
I2
I3
I4
I5
I7
tp549
(I1
I2
I3
I4
I5
I7
tp550
tp551
a((I0
I2
I3
I4
I5
I7
tp552
(I0
I3
I4
I5
I7
tp553
tp554
a((I0
I3
I4
I5
I7
I8
tp555
(I3
I4
I5
I7
I8
tp556
tp557
a((I0
I3
I4
I6
I7
tp558
(I3
I4
I6
I7
tp559
tp560
a((I0
I1
I2
I6
I7
I8
tp561
(I1
I2
I6
I7
I8
tp562
tp563
a((I0
I1
I2
I3
I4
I5
tp564
(I1
I2
I3
I4
I5
tp565
tp566
a((I0
I1
I2
I6
I8
tp567
(I1
I2
I6
I8
tp568
tp569
a((I0
I1
I2
I4
I5
tp570
(I1
I2
I4
I5
tp571
tp572
a((I0
I1
I2
I3
I5
I7
tp573
(I1
I2
I3
I5
I7
tp574
tp575
a((I0
I1
I3
I4
I6
I8
tp576
(I0
I1
I3
I4
I6
tp577
tp578
a((I0
I3
I4
tp579
(I3
I4
tp580
tp581
a((I0
I6
I7
I8
tp582
(I6
I7
I8
tp583
tp584
a((I0
I1
I2
I4
I5
I7
tp585
(I1
I2
I4
I5
I7
tp586
tp587
a((I1
I2
I5
I6
I7
tp588
(I1
I2
I6
I7
tp589
tp590
a((I0
I1
I2
I8
tp591
(I1
I2
I8
tp592
tp593
a((I1
I3
I4
I8
tp594
(I1
I3
I4
tp595
tp596
a((I0
I3
I6
I7
I8
tp597
(I3
I6
I7
I8
tp598
tp599
a((I0
I1
I2
I3
I4
I5
I6
I8
tp600
(I1
I2
I3
I4
I5
I6
I8
tp601
tp602
a((I1
I4
I6
I7
I8
tp603
(I1
I4
I6
I7
tp604
tp605
a((I0
I1
I2
I5
I6
I7
tp606
(I0
I1
I2
I6
I7
tp607
tp608
a((I0
I2
I7
tp609
(I0
I7
tp610
tp611
a((I0
I1
I3
I5
I6
I8
tp612
(I0
I1
I3
I5
I6
tp613
tp614
a((I1
I3
I6
I8
tp615
(I1
I3
I6
tp616
tp617
a((I0
I1
I2
I3
I6
I7
I8
tp618
(I1
I2
I3
I6
I7
I8
tp619
tp620
a((I0
I1
I2
I3
I5
I6
I8
tp621
(I1
I2
I3
I5
I6
I8
tp622
tp623
a((I0
I2
I4
I5
I6
I7
tp624
(I2
I4
I5
I6
I7
tp625
tp626
a((I0
I1
I3
I8
tp627
(I0
I1
I3
tp628
tp629
a((I0
I1
I3
I4
I5
I6
I8
tp630
(I0
I1
I3
I4
I5
I6
tp631
tp632
a((I0
I2
I3
I5
I7
I8
tp633
(I2
I3
I5
I7
I8
tp634
tp635
a((I0
I2
I3
I6
I7
I8
tp636
(I2
I3
I6
I7
I8
tp637
tp638
a((I1
I3
I4
I5
I7
I8
tp639
(I1
I3
I4
I5
I7
tp640
tp641
a((I1
I2
I3
I6
I8
tp642
(I1
I2
I3
I6
tp643
tp644
a((I0
I1
I3
I5
I7
I8
tp645
(I0
I1
I5
I7
I8
tp646
tp647
a((I0
I3
I4
I7
tp648
(I3
I4
I7
tp649
tp650
a((I0
I1
I5
I6
I7
I8
tp651
(I0
I1
I6
I7
I8
tp652
tp653
a((I0
I4
I5
I6
tp654
(I4
I5
I6
tp655
tp656
a((I0
I1
I2
I5
I6
I7
I8
tp657
(I1
I2
I5
I6
I7
I8
tp658
tp659
a((I1
I3
I5
I6
I7
I8
tp660
(I1
I3
I5
I7
I8
tp661
tp662
a((I0
I2
I4
I6
I8
tp663
(I2
I4
I6
I8
tp664
tp665
a((I0
I2
I4
I5
I6
I7
I8
tp666
(I2
I4
I5
I6
I7
I8
tp667
tp668
a((I0
I2
I5
I7
tp669
(I2
I5
I7
tp670
tp671
a((I0
I1
I3
I5
tp672
(I0
I1
I5
tp673
tp674
a((I0
I3
I5
tp675
(I3
I5
tp676
tp677
a((I0
I2
I3
I5
I6
I8
tp678
(I2
I3
I5
I6
I8
tp679
tp680
a((I0
I3
I4
I8
tp681
(I3
I4
I8
tp682
tp683
a((I0
I2
I3
I4
I7
tp684
(I2
I3
I4
I7
tp685
tp686
a((I0
I2
I5
I6
I7
I8
tp687
(I2
I5
I6
I7
I8
tp688
tp689
a((I0
I1
I2
I3
I5
I7
I8
tp690
(I1
I2
I3
I5
I7
I8
tp691
tp692
a((I0
I3
I4
I6
I7
I8
tp693
(I3
I4
I6
I7
I8
tp694
tp695
a((I0
I1
I2
I3
I4
I5
I8
tp696
(I1
I2
I3
I4
I5
I8
tp697
tp698
a((I0
I1
I3
I4
I5
I6
I7
tp699
(I0
I1
I3
I4
I6
I7
tp700
tp701
a((I0
I1
I2
I5
I6
tp702
(I1
I2
I5
I6
tp703
tp704
a((I0
I1
I2
I4
I5
I7
I8
tp705
(I1
I2
I4
I5
I7
I8
tp706
tp707
a((I0
I2
I6
tp708
(I2
I6
tp709
tp710
a((I0
I1
I2
I3
I5
I6
I7
I8
tp711
(I1
I2
I3
I5
I6
I7
I8
tp712
tp713
a((I0
I2
I4
I7
I8
tp714
(I2
I4
I7
I8
tp715
tp716
a((I1
I3
I4
I5
I8
tp717
(I1
I3
I5
I8
tp718
tp719
a((I0
I1
I6
I8
tp720
(I0
I1
I6
tp721
tp722
a((I0
I1
I3
I4
I5
I7
I8
tp723
(I0
I1
I3
I4
I7
I8
tp724
tp725
a((I0
I2
I3
I4
I7
I8
tp726
(I2
I3
I4
I7
I8
tp727
tp728
a((I0
I2
I3
I4
I5
tp729
(I2
I3
I4
I5
tp730
tp731
a((I0
I4
I5
I6
I7
I8
tp732
(I4
I5
I6
I7
I8
tp733
tp734
a((I0
I3
tp735
(I3
tp736
tp737
a((I0
I2
I3
I4
I5
I6
I7
I8
tp738
(I2
I3
I4
I5
I6
I7
I8
tp739
tp740
a((I0
I1
I5
I6
I7
tp741
(I0
I1
I6
I7
tp742
tp743
a((I1
I3
I8
tp744
(I1
I3
tp745
tp746
a((I0
I2
I3
I4
I8
tp747
(I2
I3
I4
I8
tp748
tp749
a((I0
I1
I2
I3
I7
I8
tp750
(I1
I2
I3
I7
I8
tp751
tp752
a((I0
I1
I2
I4
I5
I6
tp753
(I1
I2
I4
I5
I6
tp754
tp755
a((I0
I2
I3
I5
I6
tp756
(I2
I3
I5
I6
tp757
tp758
a((I0
I1
I3
I5
I6
I7
I8
tp759
(I0
I1
I3
I6
I7
I8
tp760
tp761
a.