(lp0
((I0
I1
I3
tp1
(I1
I3
tp2
tp3
a((I0
I1
I4
tp4
(I1
I4
tp5
tp6
a((I0
I1
I3
I4
tp7
(I1
I3
I4
tp8
tp9
a((I0
I2
I3
tp10
(I0
I2
tp11
tp12
a((I0
I2
I3
I4
tp13
(I0
I2
I4
tp14
tp15
a((I2
I3
tp16
(I2
tp17
tp18
a((I0
I1
tp19
(I0
tp20
tp21
a((I0
I3
I4
tp22
(I0
I4
tp23
tp24
a((I2
I3
I4
tp25
(I2
I4
tp26
tp27
a((I3
I4
tp28
(I4
tp29
tp30
a.