(lp0
((I1
I3
tp1
(I1
tp2
tp3
a((I0
I1
I3
tp4
(I0
I1
tp5
tp6
a((I0
I3
tp7
(I0
tp8
tp9
a((I0
I2
I3
tp10
(I2
I3
tp11
tp12
a((I3
tp13
(ttp14
a((I0
I4
tp15
(I4
tp16
tp17
a((I0
I2
I4
tp18
(I2
I4
tp19
tp20
a((I0
I2
tp21
(I2
tp22
tp23
a((I0
I2
I3
I4
tp24
(I2
I3
I4
tp25
tp26
a((I1
I2
I4
tp27
(I1
I2
tp28
tp29
a((I0
I3
I4
tp30
(I3
I4
tp31
tp32
a((I1
I2
I3
I4
tp33
(I1
I2
I3
tp34
tp35
a((I0
I1
I2
I4
tp36
(I0
I1
I4
tp37
tp38
a.